
os.bin:     file format elf32-littlemips


Disassembly of section .text:

80000000 <_ftext>:
	...

80000180 <exc_start>:
80000180:	27bdff84 	addiu	sp,sp,-124
80000184:	1000001e 	b	80000200 <save_all>
80000188:	00000000 	nop

8000018c <save_all_return>:
8000018c:	40046000 	mfc0	a0,c0_status
80000190:	40056800 	mfc0	a1,c0_cause
80000194:	40067000 	mfc0	a2,c0_epc
80000198:	03a03825 	move	a3,sp
8000019c:	27bdfff0 	addiu	sp,sp,-16
800001a0:	0c0003dd 	jal	80000f74 <handle_exception>
800001a4:	00000000 	nop
800001a8:	27bd0010 	addiu	sp,sp,16
800001ac:	1000002f 	b	8000026c <restore_all>
800001b0:	00000000 	nop
	...

80000200 <save_all>:
80000200:	afa40060 	sw	a0,96(sp)
80000204:	afa5005c 	sw	a1,92(sp)
80000208:	afa60058 	sw	a2,88(sp)
8000020c:	afa70054 	sw	a3,84(sp)
80000210:	afa80050 	sw	t0,80(sp)
80000214:	afa9004c 	sw	t1,76(sp)
80000218:	afaa0048 	sw	t2,72(sp)
8000021c:	afab0044 	sw	t3,68(sp)
80000220:	afac0040 	sw	t4,64(sp)
80000224:	afad003c 	sw	t5,60(sp)
80000228:	afae0038 	sw	t6,56(sp)
8000022c:	afaf0034 	sw	t7,52(sp)
80000230:	afb00030 	sw	s0,48(sp)
80000234:	afb1002c 	sw	s1,44(sp)
80000238:	afb20028 	sw	s2,40(sp)
8000023c:	afb30024 	sw	s3,36(sp)
80000240:	afb40020 	sw	s4,32(sp)
80000244:	afb5001c 	sw	s5,28(sp)
80000248:	afb60018 	sw	s6,24(sp)
8000024c:	afb70014 	sw	s7,20(sp)
80000250:	afb80010 	sw	t8,16(sp)
80000254:	afb9000c 	sw	t9,12(sp)
80000258:	afbc0008 	sw	gp,8(sp)
8000025c:	afbe0004 	sw	s8,4(sp)
80000260:	afbf0000 	sw	ra,0(sp)
80000264:	1000ffc9 	b	8000018c <save_all_return>
80000268:	00000000 	nop

8000026c <restore_all>:
8000026c:	8fa40060 	lw	a0,96(sp)
80000270:	8fa5005c 	lw	a1,92(sp)
80000274:	8fa60058 	lw	a2,88(sp)
80000278:	8fa70054 	lw	a3,84(sp)
8000027c:	8fa80050 	lw	t0,80(sp)
80000280:	8fa9004c 	lw	t1,76(sp)
80000284:	8faa0048 	lw	t2,72(sp)
80000288:	8fab0044 	lw	t3,68(sp)
8000028c:	8fac0040 	lw	t4,64(sp)
80000290:	8fad003c 	lw	t5,60(sp)
80000294:	8fae0038 	lw	t6,56(sp)
80000298:	8faf0034 	lw	t7,52(sp)
8000029c:	8fb00030 	lw	s0,48(sp)
800002a0:	8fb1002c 	lw	s1,44(sp)
800002a4:	8fb20028 	lw	s2,40(sp)
800002a8:	8fb30024 	lw	s3,36(sp)
800002ac:	8fb40020 	lw	s4,32(sp)
800002b0:	8fb5001c 	lw	s5,28(sp)
800002b4:	8fb60018 	lw	s6,24(sp)
800002b8:	8fb70014 	lw	s7,20(sp)
800002bc:	8fb80010 	lw	t8,16(sp)
800002c0:	8fb9000c 	lw	t9,12(sp)
800002c4:	8fbc0008 	lw	gp,8(sp)
800002c8:	8fbe0004 	lw	s8,4(sp)
800002cc:	8fbf0000 	lw	ra,0(sp)
800002d0:	23bd007c 	addi	sp,sp,124
800002d4:	42000018 	eret
	...

80000400 <init_start>:
80000400:	3c1d8000 	lui	sp,0x8000
80000404:	37bd3000 	ori	sp,sp,0x3000
80000408:	0c000108 	jal	80000420 <init_all>
8000040c:	00000000 	nop
80000410:	201a0001 	addi	k0,zero,1
80000414:	409a5000 	mtc0	k0,c0_entryhi
80000418:	080004b6 	j	800012d8 <shell>
8000041c:	00000000 	nop

80000420 <init_all>:
80000420:	27bdffe8 	addiu	sp,sp,-24
80000424:	afbf0014 	sw	ra,20(sp)
80000428:	3c02b000 	lui	v0,0xb000
8000042c:	24422000 	addiu	v0,v0,8192
80000430:	3c03b000 	lui	v1,0xb000
80000434:	246332c0 	addiu	v1,v1,12992
80000438:	ac400000 	sw	zero,0(v0)
8000043c:	24420004 	addiu	v0,v0,4
80000440:	1443fffd 	bne	v0,v1,80000438 <init_all+0x18>
80000444:	00000000 	nop
80000448:	3c02b000 	lui	v0,0xb000
8000044c:	24030001 	li	v1,1
80000450:	ac430000 	sw	v1,0(v0)
80000454:	3c03013f 	lui	v1,0x13f
80000458:	ac430004 	sw	v1,4(v0)
8000045c:	ac40000c 	sw	zero,12(v0)
80000460:	3c03aa55 	lui	v1,0xaa55
80000464:	246355aa 	addiu	v1,v1,21930
80000468:	0c000122 	jal	80000488 <init_keybuf>
8000046c:	ac430010 	sw	v1,16(v0)
80000470:	0c0001fc 	jal	800007f0 <init_timer>
80000474:	00000000 	nop
80000478:	8fbf0014 	lw	ra,20(sp)
8000047c:	00000000 	nop
80000480:	03e00008 	jr	ra
80000484:	27bd0018 	addiu	sp,sp,24

80000488 <init_keybuf>:
80000488:	3c028000 	lui	v0,0x8000
8000048c:	2403001f 	li	v1,31
80000490:	ac432008 	sw	v1,8200(v0)
80000494:	3c028000 	lui	v0,0x8000
80000498:	03e00008 	jr	ra
8000049c:	ac402004 	sw	zero,8196(v0)

800004a0 <get_from_keybuf>:
800004a0:	3c028000 	lui	v0,0x8000
800004a4:	8c432004 	lw	v1,8196(v0)
800004a8:	3c028000 	lui	v0,0x8000
800004ac:	8c422008 	lw	v0,8200(v0)
800004b0:	00000000 	nop
800004b4:	24420001 	addiu	v0,v0,1
800004b8:	3042001f 	andi	v0,v0,0x1f
800004bc:	1043000a 	beq	v0,v1,800004e8 <get_from_keybuf+0x48>
800004c0:	3c048000 	lui	a0,0x8000
800004c4:	00031040 	sll	v0,v1,0x1
800004c8:	2484200c 	addiu	a0,a0,8204
800004cc:	00441021 	addu	v0,v0,a0
800004d0:	94420000 	lhu	v0,0(v0)
800004d4:	24630001 	addiu	v1,v1,1
800004d8:	3063001f 	andi	v1,v1,0x1f
800004dc:	3c048000 	lui	a0,0x8000
800004e0:	03e00008 	jr	ra
800004e4:	ac832004 	sw	v1,8196(a0)
800004e8:	03e00008 	jr	ra
800004ec:	3402ffff 	li	v0,0xffff

800004f0 <handle_keyboard>:
800004f0:	3c02b000 	lui	v0,0xb000
800004f4:	90420014 	lbu	v0,20(v0)
800004f8:	3c038000 	lui	v1,0x8000
800004fc:	8c632050 	lw	v1,8272(v1)
80000500:	24040001 	li	a0,1
80000504:	1064008b 	beq	v1,a0,80000734 <handle_keyboard+0x244>
80000508:	28640002 	slti	a0,v1,2
8000050c:	14800013 	bnez	a0,8000055c <handle_keyboard+0x6c>
80000510:	24040002 	li	a0,2
80000514:	106400a2 	beq	v1,a0,800007a0 <handle_keyboard+0x2b0>
80000518:	24040003 	li	a0,3
8000051c:	14640053 	bne	v1,a0,8000066c <handle_keyboard+0x17c>
80000520:	000220c2 	srl	a0,v0,0x3
80000524:	3c038000 	lui	v1,0x8000
80000528:	24632054 	addiu	v1,v1,8276
8000052c:	00832021 	addu	a0,a0,v1
80000530:	30420007 	andi	v0,v0,0x7
80000534:	24030001 	li	v1,1
80000538:	00431004 	sllv	v0,v1,v0
8000053c:	00021027 	nor	v0,zero,v0
80000540:	90830000 	lbu	v1,0(a0)
80000544:	00000000 	nop
80000548:	00431024 	and	v0,v0,v1
8000054c:	a0820000 	sb	v0,0(a0)
80000550:	3c028000 	lui	v0,0x8000
80000554:	03e00008 	jr	ra
80000558:	ac402050 	sw	zero,8272(v0)
8000055c:	14600043 	bnez	v1,8000066c <handle_keyboard+0x17c>
80000560:	240300e0 	li	v1,224
80000564:	10430043 	beq	v0,v1,80000674 <handle_keyboard+0x184>
80000568:	240300f0 	li	v1,240
8000056c:	10430045 	beq	v0,v1,80000684 <handle_keyboard+0x194>
80000570:	000218c2 	srl	v1,v0,0x3
80000574:	27bdffe8 	addiu	sp,sp,-24
80000578:	afbf0014 	sw	ra,20(sp)
8000057c:	3c048000 	lui	a0,0x8000
80000580:	24842064 	addiu	a0,a0,8292
80000584:	00641821 	addu	v1,v1,a0
80000588:	30450007 	andi	a1,v0,0x7
8000058c:	24040001 	li	a0,1
80000590:	00a42004 	sllv	a0,a0,a1
80000594:	90650000 	lbu	a1,0(v1)
80000598:	00000000 	nop
8000059c:	00852025 	or	a0,a0,a1
800005a0:	a0640000 	sb	a0,0(v1)
800005a4:	24030058 	li	v1,88
800005a8:	1043003a 	beq	v0,v1,80000694 <handle_keyboard+0x1a4>
800005ac:	3c038000 	lui	v1,0x8000
800005b0:	3c048000 	lui	a0,0x8000
800005b4:	24842064 	addiu	a0,a0,8292
800005b8:	90830002 	lbu	v1,2(a0)
800005bc:	00000000 	nop
800005c0:	30630004 	andi	v1,v1,0x4
800005c4:	9084000b 	lbu	a0,11(a0)
800005c8:	00000000 	nop
800005cc:	30840002 	andi	a0,a0,0x2
800005d0:	00641825 	or	v1,v1,a0
800005d4:	3c048000 	lui	a0,0x8000
800005d8:	8c84204c 	lw	a0,8268(a0)
800005dc:	00000000 	nop
800005e0:	00641825 	or	v1,v1,a0
800005e4:	10600038 	beqz	v1,800006c8 <handle_keyboard+0x1d8>
800005e8:	3c038000 	lui	v1,0x8000
800005ec:	00021040 	sll	v0,v0,0x1
800005f0:	3c038000 	lui	v1,0x8000
800005f4:	24632174 	addiu	v1,v1,8564
800005f8:	00431021 	addu	v0,v0,v1
800005fc:	94440000 	lhu	a0,0(v0)
80000600:	3402ffff 	li	v0,0xffff
80000604:	10820013 	beq	a0,v0,80000654 <handle_keyboard+0x164>
80000608:	3c028000 	lui	v0,0x8000
8000060c:	8c422008 	lw	v0,8200(v0)
80000610:	00000000 	nop
80000614:	24430002 	addiu	v1,v0,2
80000618:	3063001f 	andi	v1,v1,0x1f
8000061c:	3c058000 	lui	a1,0x8000
80000620:	8ca52004 	lw	a1,8196(a1)
80000624:	00000000 	nop
80000628:	1065000a 	beq	v1,a1,80000654 <handle_keyboard+0x164>
8000062c:	24420001 	addiu	v0,v0,1
80000630:	3042001f 	andi	v0,v0,0x1f
80000634:	3c038000 	lui	v1,0x8000
80000638:	ac622008 	sw	v0,8200(v1)
8000063c:	00021040 	sll	v0,v0,0x1
80000640:	3c038000 	lui	v1,0x8000
80000644:	2463200c 	addiu	v1,v1,8204
80000648:	00431021 	addu	v0,v0,v1
8000064c:	0c000363 	jal	80000d8c <_put_char>
80000650:	a4440000 	sh	a0,0(v0)
80000654:	3c028000 	lui	v0,0x8000
80000658:	ac402050 	sw	zero,8272(v0)
8000065c:	8fbf0014 	lw	ra,20(sp)
80000660:	00000000 	nop
80000664:	03e00008 	jr	ra
80000668:	27bd0018 	addiu	sp,sp,24
8000066c:	03e00008 	jr	ra
80000670:	00000000 	nop
80000674:	3c028000 	lui	v0,0x8000
80000678:	24030002 	li	v1,2
8000067c:	03e00008 	jr	ra
80000680:	ac432050 	sw	v1,8272(v0)
80000684:	3c028000 	lui	v0,0x8000
80000688:	24030001 	li	v1,1
8000068c:	03e00008 	jr	ra
80000690:	ac432050 	sw	v1,8272(v0)
80000694:	8c63204c 	lw	v1,8268(v1)
80000698:	00000000 	nop
8000069c:	10600006 	beqz	v1,800006b8 <handle_keyboard+0x1c8>
800006a0:	24040002 	li	a0,2
800006a4:	1464ffc3 	bne	v1,a0,800005b4 <handle_keyboard+0xc4>
800006a8:	3c048000 	lui	a0,0x8000
800006ac:	3c038000 	lui	v1,0x8000
800006b0:	1000ffc0 	b	800005b4 <handle_keyboard+0xc4>
800006b4:	ac60204c 	sw	zero,8268(v1)
800006b8:	3c038000 	lui	v1,0x8000
800006bc:	24040001 	li	a0,1
800006c0:	1000ffbb 	b	800005b0 <handle_keyboard+0xc0>
800006c4:	ac64204c 	sw	a0,8268(v1)
800006c8:	00021040 	sll	v0,v0,0x1
800006cc:	24632074 	addiu	v1,v1,8308
800006d0:	00431021 	addu	v0,v0,v1
800006d4:	94440000 	lhu	a0,0(v0)
800006d8:	3402ffff 	li	v0,0xffff
800006dc:	1082ffdd 	beq	a0,v0,80000654 <handle_keyboard+0x164>
800006e0:	3c028000 	lui	v0,0x8000
800006e4:	8c422008 	lw	v0,8200(v0)
800006e8:	00000000 	nop
800006ec:	24430002 	addiu	v1,v0,2
800006f0:	3063001f 	andi	v1,v1,0x1f
800006f4:	3c058000 	lui	a1,0x8000
800006f8:	8ca52004 	lw	a1,8196(a1)
800006fc:	00000000 	nop
80000700:	1065ffd4 	beq	v1,a1,80000654 <handle_keyboard+0x164>
80000704:	24420001 	addiu	v0,v0,1
80000708:	3042001f 	andi	v0,v0,0x1f
8000070c:	3c038000 	lui	v1,0x8000
80000710:	ac622008 	sw	v0,8200(v1)
80000714:	00021040 	sll	v0,v0,0x1
80000718:	3c038000 	lui	v1,0x8000
8000071c:	2463200c 	addiu	v1,v1,8204
80000720:	00431021 	addu	v0,v0,v1
80000724:	0c000363 	jal	80000d8c <_put_char>
80000728:	a4440000 	sh	a0,0(v0)
8000072c:	1000ffca 	b	80000658 <handle_keyboard+0x168>
80000730:	3c028000 	lui	v0,0x8000
80000734:	000220c2 	srl	a0,v0,0x3
80000738:	3c038000 	lui	v1,0x8000
8000073c:	24632064 	addiu	v1,v1,8292
80000740:	00832021 	addu	a0,a0,v1
80000744:	30450007 	andi	a1,v0,0x7
80000748:	24030001 	li	v1,1
8000074c:	00a31804 	sllv	v1,v1,a1
80000750:	00031827 	nor	v1,zero,v1
80000754:	90850000 	lbu	a1,0(a0)
80000758:	00000000 	nop
8000075c:	00651824 	and	v1,v1,a1
80000760:	a0830000 	sb	v1,0(a0)
80000764:	24030058 	li	v1,88
80000768:	10430004 	beq	v0,v1,8000077c <handle_keyboard+0x28c>
8000076c:	3c028000 	lui	v0,0x8000
80000770:	3c028000 	lui	v0,0x8000
80000774:	03e00008 	jr	ra
80000778:	ac402050 	sw	zero,8272(v0)
8000077c:	8c43204c 	lw	v1,8268(v0)
80000780:	24020001 	li	v0,1
80000784:	10620003 	beq	v1,v0,80000794 <handle_keyboard+0x2a4>
80000788:	3c028000 	lui	v0,0x8000
8000078c:	1000fff8 	b	80000770 <handle_keyboard+0x280>
80000790:	ac40204c 	sw	zero,8268(v0)
80000794:	24030002 	li	v1,2
80000798:	1000fff5 	b	80000770 <handle_keyboard+0x280>
8000079c:	ac43204c 	sw	v1,8268(v0)
800007a0:	240300f0 	li	v1,240
800007a4:	1043000e 	beq	v0,v1,800007e0 <handle_keyboard+0x2f0>
800007a8:	000218c2 	srl	v1,v0,0x3
800007ac:	3c048000 	lui	a0,0x8000
800007b0:	24842054 	addiu	a0,a0,8276
800007b4:	00641821 	addu	v1,v1,a0
800007b8:	30440007 	andi	a0,v0,0x7
800007bc:	24020001 	li	v0,1
800007c0:	00821004 	sllv	v0,v0,a0
800007c4:	90640000 	lbu	a0,0(v1)
800007c8:	00000000 	nop
800007cc:	00441025 	or	v0,v0,a0
800007d0:	a0620000 	sb	v0,0(v1)
800007d4:	3c028000 	lui	v0,0x8000
800007d8:	03e00008 	jr	ra
800007dc:	ac402050 	sw	zero,8272(v0)
800007e0:	3c028000 	lui	v0,0x8000
800007e4:	24030003 	li	v1,3
800007e8:	03e00008 	jr	ra
800007ec:	ac432050 	sw	v1,8272(v0)

800007f0 <init_timer>:
800007f0:	27bdfff8 	addiu	sp,sp,-8
800007f4:	afb00004 	sw	s0,4(sp)
800007f8:	3c038000 	lui	v1,0x8000
800007fc:	24020030 	li	v0,48
80000800:	a4622274 	sh	v0,8820(v1)
80000804:	24632274 	addiu	v1,v1,8820
80000808:	a4620002 	sh	v0,2(v1)
8000080c:	2404003a 	li	a0,58
80000810:	a4640004 	sh	a0,4(v1)
80000814:	a4620006 	sh	v0,6(v1)
80000818:	a4620008 	sh	v0,8(v1)
8000081c:	a464000a 	sh	a0,10(v1)
80000820:	a462000c 	sh	v0,12(v1)
80000824:	a462000e 	sh	v0,14(v1)
80000828:	00601025 	move	v0,v1
8000082c:	24650010 	addiu	a1,v1,16
80000830:	3c04b000 	lui	a0,0xb000
80000834:	248432a0 	addiu	a0,a0,12960
80000838:	3c063f00 	lui	a2,0x3f00
8000083c:	94430000 	lhu	v1,0(v0)
80000840:	00661825 	or	v1,v1,a2
80000844:	ac830000 	sw	v1,0(a0)
80000848:	24420002 	addiu	v0,v0,2
8000084c:	1445fffb 	bne	v0,a1,8000083c <init_timer+0x4c>
80000850:	24840004 	addiu	a0,a0,4
80000854:	3c1002fa 	lui	s0,0x2fa
80000858:	3610f080 	ori	s0,s0,0xf080
8000085c:	40804800 	mtc0	zero,c0_count
80000860:	40905800 	mtc0	s0,c0_compare
80000864:	8fb00004 	lw	s0,4(sp)
80000868:	03e00008 	jr	ra
8000086c:	27bd0008 	addiu	sp,sp,8

80000870 <handle_timer>:
80000870:	27bdfff8 	addiu	sp,sp,-8
80000874:	afb00004 	sw	s0,4(sp)
80000878:	3c028000 	lui	v0,0x8000
8000087c:	94422282 	lhu	v0,8834(v0)
80000880:	24030039 	li	v1,57
80000884:	10430016 	beq	v0,v1,800008e0 <handle_timer+0x70>
80000888:	24420001 	addiu	v0,v0,1
8000088c:	3c038000 	lui	v1,0x8000
80000890:	a4622282 	sh	v0,8834(v1)
80000894:	3c028000 	lui	v0,0x8000
80000898:	24422274 	addiu	v0,v0,8820
8000089c:	24460010 	addiu	a2,v0,16
800008a0:	3c04b000 	lui	a0,0xb000
800008a4:	248432a0 	addiu	a0,a0,12960
800008a8:	3c053f00 	lui	a1,0x3f00
800008ac:	94430000 	lhu	v1,0(v0)
800008b0:	00651825 	or	v1,v1,a1
800008b4:	ac830000 	sw	v1,0(a0)
800008b8:	24420002 	addiu	v0,v0,2
800008bc:	1446fffb 	bne	v0,a2,800008ac <handle_timer+0x3c>
800008c0:	24840004 	addiu	a0,a0,4
800008c4:	3c1002fa 	lui	s0,0x2fa
800008c8:	3610f080 	ori	s0,s0,0xf080
800008cc:	40804800 	mtc0	zero,c0_count
800008d0:	40905800 	mtc0	s0,c0_compare
800008d4:	8fb00004 	lw	s0,4(sp)
800008d8:	03e00008 	jr	ra
800008dc:	27bd0008 	addiu	sp,sp,8
800008e0:	3c028000 	lui	v0,0x8000
800008e4:	24422274 	addiu	v0,v0,8820
800008e8:	24030030 	li	v1,48
800008ec:	a443000e 	sh	v1,14(v0)
800008f0:	9442000c 	lhu	v0,12(v0)
800008f4:	24030035 	li	v1,53
800008f8:	10430004 	beq	v0,v1,8000090c <handle_timer+0x9c>
800008fc:	24420001 	addiu	v0,v0,1
80000900:	3c038000 	lui	v1,0x8000
80000904:	1000ffe3 	b	80000894 <handle_timer+0x24>
80000908:	a4622280 	sh	v0,8832(v1)
8000090c:	3c028000 	lui	v0,0x8000
80000910:	24422274 	addiu	v0,v0,8820
80000914:	24030030 	li	v1,48
80000918:	a443000c 	sh	v1,12(v0)
8000091c:	94420008 	lhu	v0,8(v0)
80000920:	24030039 	li	v1,57
80000924:	10430004 	beq	v0,v1,80000938 <handle_timer+0xc8>
80000928:	24420001 	addiu	v0,v0,1
8000092c:	3c038000 	lui	v1,0x8000
80000930:	1000ffd8 	b	80000894 <handle_timer+0x24>
80000934:	a462227c 	sh	v0,8828(v1)
80000938:	3c028000 	lui	v0,0x8000
8000093c:	24422274 	addiu	v0,v0,8820
80000940:	24030030 	li	v1,48
80000944:	a4430008 	sh	v1,8(v0)
80000948:	94420006 	lhu	v0,6(v0)
8000094c:	24030035 	li	v1,53
80000950:	10430004 	beq	v0,v1,80000964 <handle_timer+0xf4>
80000954:	24420001 	addiu	v0,v0,1
80000958:	3c038000 	lui	v1,0x8000
8000095c:	1000ffcd 	b	80000894 <handle_timer+0x24>
80000960:	a462227a 	sh	v0,8826(v1)
80000964:	3c028000 	lui	v0,0x8000
80000968:	24432274 	addiu	v1,v0,8820
8000096c:	24040030 	li	a0,48
80000970:	a4640006 	sh	a0,6(v1)
80000974:	94432274 	lhu	v1,8820(v0)
80000978:	24020032 	li	v0,50
8000097c:	10620008 	beq	v1,v0,800009a0 <handle_timer+0x130>
80000980:	3c028000 	lui	v0,0x8000
80000984:	94422276 	lhu	v0,8822(v0)
80000988:	24040039 	li	a0,57
8000098c:	1044000e 	beq	v0,a0,800009c8 <handle_timer+0x158>
80000990:	24420001 	addiu	v0,v0,1
80000994:	3c038000 	lui	v1,0x8000
80000998:	1000ffbe 	b	80000894 <handle_timer+0x24>
8000099c:	a4622276 	sh	v0,8822(v1)
800009a0:	94442276 	lhu	a0,8822(v0)
800009a4:	24020033 	li	v0,51
800009a8:	1482fff6 	bne	a0,v0,80000984 <handle_timer+0x114>
800009ac:	3c028000 	lui	v0,0x8000
800009b0:	3c028000 	lui	v0,0x8000
800009b4:	24030030 	li	v1,48
800009b8:	a4432274 	sh	v1,8820(v0)
800009bc:	24422274 	addiu	v0,v0,8820
800009c0:	1000ffb4 	b	80000894 <handle_timer+0x24>
800009c4:	a4430002 	sh	v1,2(v0)
800009c8:	3c028000 	lui	v0,0x8000
800009cc:	24442274 	addiu	a0,v0,8820
800009d0:	24050030 	li	a1,48
800009d4:	a4850002 	sh	a1,2(a0)
800009d8:	24630001 	addiu	v1,v1,1
800009dc:	1000ffae 	b	80000898 <handle_timer+0x28>
800009e0:	a4432274 	sh	v1,8820(v0)

800009e4 <_scroll_screen>:
800009e4:	2482ffff 	addiu	v0,a0,-1
800009e8:	2c42001d 	sltiu	v0,v0,29
800009ec:	10400038 	beqz	v0,80000ad0 <_scroll_screen+0xec>
800009f0:	3c03b000 	lui	v1,0xb000
800009f4:	00041080 	sll	v0,a0,0x2
800009f8:	00441021 	addu	v0,v0,a0
800009fc:	00023940 	sll	a3,v0,0x5
80000a00:	24622000 	addiu	v0,v1,8192
80000a04:	00e21021 	addu	v0,a3,v0
80000a08:	24633220 	addiu	v1,v1,12832
80000a0c:	0043182b 	sltu	v1,v0,v1
80000a10:	10600029 	beqz	v1,80000ab8 <_scroll_screen+0xd4>
80000a14:	00e04025 	move	t0,a3
80000a18:	3c06b000 	lui	a2,0xb000
80000a1c:	24c63220 	addiu	a2,a2,12832
80000a20:	8c450000 	lw	a1,0(v0)
80000a24:	00481823 	subu	v1,v0,t0
80000a28:	ac650000 	sw	a1,0(v1)
80000a2c:	24420004 	addiu	v0,v0,4
80000a30:	0046182b 	sltu	v1,v0,a2
80000a34:	1460fffa 	bnez	v1,80000a20 <_scroll_screen+0x3c>
80000a38:	2403fffc 	li	v1,-4
80000a3c:	2402121f 	li	v0,4639
80000a40:	00471023 	subu	v0,v0,a3
80000a44:	00431024 	and	v0,v0,v1
80000a48:	3c03b000 	lui	v1,0xb000
80000a4c:	24652004 	addiu	a1,v1,8196
80000a50:	00451021 	addu	v0,v0,a1
80000a54:	24633220 	addiu	v1,v1,12832
80000a58:	0043182b 	sltu	v1,v0,v1
80000a5c:	10600008 	beqz	v1,80000a80 <_scroll_screen+0x9c>
80000a60:	00000000 	nop
80000a64:	3c05b000 	lui	a1,0xb000
80000a68:	24a53220 	addiu	a1,a1,12832
80000a6c:	ac400000 	sw	zero,0(v0)
80000a70:	24420004 	addiu	v0,v0,4
80000a74:	0045182b 	sltu	v1,v0,a1
80000a78:	1460fffc 	bnez	v1,80000a6c <_scroll_screen+0x88>
80000a7c:	00000000 	nop
80000a80:	3c02b000 	lui	v0,0xb000
80000a84:	8c430004 	lw	v1,4(v0)
80000a88:	00041080 	sll	v0,a0,0x2
80000a8c:	00442021 	addu	a0,v0,a0
80000a90:	000420c0 	sll	a0,a0,0x3
80000a94:	306207ff 	andi	v0,v1,0x7ff
80000a98:	0082102b 	sltu	v0,a0,v0
80000a9c:	10400009 	beqz	v0,80000ac4 <_scroll_screen+0xe0>
80000aa0:	00000000 	nop
80000aa4:	00641823 	subu	v1,v1,a0
80000aa8:	3c02b000 	lui	v0,0xb000
80000aac:	ac430004 	sw	v1,4(v0)
80000ab0:	03e00008 	jr	ra
80000ab4:	24020001 	li	v0,1
80000ab8:	3c02b000 	lui	v0,0xb000
80000abc:	1000ffe9 	b	80000a64 <_scroll_screen+0x80>
80000ac0:	24422000 	addiu	v0,v0,8192
80000ac4:	2404f800 	li	a0,-2048
80000ac8:	1000fff7 	b	80000aa8 <_scroll_screen+0xc4>
80000acc:	00641824 	and	v1,v1,a0
80000ad0:	03e00008 	jr	ra
80000ad4:	00001025 	move	v0,zero

80000ad8 <put_seg_>:
80000ad8:	8c83005c 	lw	v1,92(a0)
80000adc:	3c02b000 	lui	v0,0xb000
80000ae0:	ac430010 	sw	v1,16(v0)
80000ae4:	03e00008 	jr	ra
80000ae8:	24020001 	li	v0,1

80000aec <get_sw_>:
80000aec:	3c02b000 	lui	v0,0xb000
80000af0:	8c420008 	lw	v0,8(v0)
80000af4:	03e00008 	jr	ra
80000af8:	00000000 	nop

80000afc <get_btn_>:
80000afc:	3c02b000 	lui	v0,0xb000
80000b00:	8c42001c 	lw	v0,28(v0)
80000b04:	03e00008 	jr	ra
80000b08:	00000000 	nop

80000b0c <put_led_>:
80000b0c:	8c83005c 	lw	v1,92(a0)
80000b10:	3c02b000 	lui	v0,0xb000
80000b14:	ac43000c 	sw	v1,12(v0)
80000b18:	03e00008 	jr	ra
80000b1c:	24020001 	li	v0,1

80000b20 <set_vga_>:
80000b20:	3c05b000 	lui	a1,0xb000
80000b24:	8ca20000 	lw	v0,0(a1)
80000b28:	2403fffc 	li	v1,-4
80000b2c:	00431024 	and	v0,v0,v1
80000b30:	8c83005c 	lw	v1,92(a0)
80000b34:	00000000 	nop
80000b38:	30630011 	andi	v1,v1,0x11
80000b3c:	00431025 	or	v0,v0,v1
80000b40:	aca20000 	sw	v0,0(a1)
80000b44:	03e00008 	jr	ra
80000b48:	24020001 	li	v0,1

80000b4c <set_cursor_>:
80000b4c:	8c850058 	lw	a1,88(a0)
80000b50:	8c82005c 	lw	v0,92(a0)
80000b54:	00000000 	nop
80000b58:	00021600 	sll	v0,v0,0x18
80000b5c:	3c031100 	lui	v1,0x1100
80000b60:	00431024 	and	v0,v0,v1
80000b64:	8c830054 	lw	v1,84(a0)
80000b68:	00000000 	nop
80000b6c:	306307ff 	andi	v1,v1,0x7ff
80000b70:	00431025 	or	v0,v0,v1
80000b74:	90a30002 	lbu	v1,2(a1)
80000b78:	00000000 	nop
80000b7c:	00031982 	srl	v1,v1,0x6
80000b80:	00031d00 	sll	v1,v1,0x14
80000b84:	00431025 	or	v0,v0,v1
80000b88:	90a30001 	lbu	v1,1(a1)
80000b8c:	00000000 	nop
80000b90:	00031982 	srl	v1,v1,0x6
80000b94:	00031c80 	sll	v1,v1,0x12
80000b98:	00431025 	or	v0,v0,v1
80000b9c:	90a30000 	lbu	v1,0(a1)
80000ba0:	00000000 	nop
80000ba4:	00031982 	srl	v1,v1,0x6
80000ba8:	00031c00 	sll	v1,v1,0x10
80000bac:	00621025 	or	v0,v1,v0
80000bb0:	3c03b000 	lui	v1,0xb000
80000bb4:	ac620004 	sw	v0,4(v1)
80000bb8:	03e00008 	jr	ra
80000bbc:	24020001 	li	v0,1

80000bc0 <get_cursor_>:
80000bc0:	3c02b000 	lui	v0,0xb000
80000bc4:	8c420004 	lw	v0,4(v0)
80000bc8:	03e00008 	jr	ra
80000bcc:	00000000 	nop

80000bd0 <scroll_screen_>:
80000bd0:	27bdffe8 	addiu	sp,sp,-24
80000bd4:	afbf0014 	sw	ra,20(sp)
80000bd8:	8c84005c 	lw	a0,92(a0)
80000bdc:	0c000279 	jal	800009e4 <_scroll_screen>
80000be0:	00000000 	nop
80000be4:	8fbf0014 	lw	ra,20(sp)
80000be8:	00000000 	nop
80000bec:	03e00008 	jr	ra
80000bf0:	27bd0018 	addiu	sp,sp,24

80000bf4 <clear_screen_>:
80000bf4:	3c02b000 	lui	v0,0xb000
80000bf8:	24422000 	addiu	v0,v0,8192
80000bfc:	3c03b000 	lui	v1,0xb000
80000c00:	24633220 	addiu	v1,v1,12832
80000c04:	ac400000 	sw	zero,0(v0)
80000c08:	24420004 	addiu	v0,v0,4
80000c0c:	1443fffd 	bne	v0,v1,80000c04 <clear_screen_+0x10>
80000c10:	2404f800 	li	a0,-2048
80000c14:	3c03b000 	lui	v1,0xb000
80000c18:	8c620004 	lw	v0,4(v1)
80000c1c:	00000000 	nop
80000c20:	00441024 	and	v0,v0,a0
80000c24:	ac620004 	sw	v0,4(v1)
80000c28:	03e00008 	jr	ra
80000c2c:	24020001 	li	v0,1

80000c30 <put_charAt_>:
80000c30:	8c820058 	lw	v0,88(a0)
80000c34:	00000000 	nop
80000c38:	2c430488 	sltiu	v1,v0,1160
80000c3c:	10600027 	beqz	v1,80000cdc <put_charAt_+0xac>
80000c40:	3c06b000 	lui	a2,0xb000
80000c44:	8c830054 	lw	v1,84(a0)
80000c48:	00021080 	sll	v0,v0,0x2
80000c4c:	00c23021 	addu	a2,a2,v0
80000c50:	90620002 	lbu	v0,2(v1)
80000c54:	00000000 	nop
80000c58:	00021182 	srl	v0,v0,0x6
80000c5c:	00021700 	sll	v0,v0,0x1c
80000c60:	90650001 	lbu	a1,1(v1)
80000c64:	00000000 	nop
80000c68:	00052982 	srl	a1,a1,0x6
80000c6c:	00052e80 	sll	a1,a1,0x1a
80000c70:	00451025 	or	v0,v0,a1
80000c74:	90650000 	lbu	a1,0(v1)
80000c78:	00000000 	nop
80000c7c:	00052982 	srl	a1,a1,0x6
80000c80:	00052e00 	sll	a1,a1,0x18
80000c84:	00451025 	or	v0,v0,a1
80000c88:	90650005 	lbu	a1,5(v1)
80000c8c:	00000000 	nop
80000c90:	00052982 	srl	a1,a1,0x6
80000c94:	00052d00 	sll	a1,a1,0x14
80000c98:	00451025 	or	v0,v0,a1
80000c9c:	90650004 	lbu	a1,4(v1)
80000ca0:	00000000 	nop
80000ca4:	00052982 	srl	a1,a1,0x6
80000ca8:	00052c80 	sll	a1,a1,0x12
80000cac:	00451025 	or	v0,v0,a1
80000cb0:	90630003 	lbu	v1,3(v1)
80000cb4:	00000000 	nop
80000cb8:	00031982 	srl	v1,v1,0x6
80000cbc:	00031c00 	sll	v1,v1,0x10
80000cc0:	00431025 	or	v0,v0,v1
80000cc4:	9483005c 	lhu	v1,92(a0)
80000cc8:	00000000 	nop
80000ccc:	00431025 	or	v0,v0,v1
80000cd0:	acc22000 	sw	v0,8192(a2)
80000cd4:	03e00008 	jr	ra
80000cd8:	24020001 	li	v0,1
80000cdc:	03e00008 	jr	ra
80000ce0:	00001025 	move	v0,zero

80000ce4 <put_pixel_>:
80000ce4:	8c85005c 	lw	a1,92(a0)
80000ce8:	8c830058 	lw	v1,88(a0)
80000cec:	2ca20280 	sltiu	v0,a1,640
80000cf0:	1040001c 	beqz	v0,80000d64 <put_pixel_+0x80>
80000cf4:	00000000 	nop
80000cf8:	2c6201e0 	sltiu	v0,v1,480
80000cfc:	10400019 	beqz	v0,80000d64 <put_pixel_+0x80>
80000d00:	00000000 	nop
80000d04:	8c860054 	lw	a2,84(a0)
80000d08:	00031080 	sll	v0,v1,0x2
80000d0c:	00431021 	addu	v0,v0,v1
80000d10:	000211c0 	sll	v0,v0,0x7
80000d14:	00451021 	addu	v0,v0,a1
80000d18:	00021080 	sll	v0,v0,0x2
80000d1c:	3c04b001 	lui	a0,0xb001
80000d20:	00822021 	addu	a0,a0,v0
80000d24:	90c20002 	lbu	v0,2(a2)
80000d28:	00000000 	nop
80000d2c:	00021142 	srl	v0,v0,0x5
80000d30:	00021180 	sll	v0,v0,0x6
80000d34:	90c30001 	lbu	v1,1(a2)
80000d38:	00000000 	nop
80000d3c:	00031942 	srl	v1,v1,0x5
80000d40:	000318c0 	sll	v1,v1,0x3
80000d44:	00431025 	or	v0,v0,v1
80000d48:	90c30000 	lbu	v1,0(a2)
80000d4c:	00000000 	nop
80000d50:	00031942 	srl	v1,v1,0x5
80000d54:	00431025 	or	v0,v0,v1
80000d58:	a4820000 	sh	v0,0(a0)
80000d5c:	03e00008 	jr	ra
80000d60:	24020001 	li	v0,1
80000d64:	03e00008 	jr	ra
80000d68:	00001025 	move	v0,zero

80000d6c <get_char_>:
80000d6c:	27bdffe8 	addiu	sp,sp,-24
80000d70:	afbf0014 	sw	ra,20(sp)
80000d74:	0c000128 	jal	800004a0 <get_from_keybuf>
80000d78:	00000000 	nop
80000d7c:	8fbf0014 	lw	ra,20(sp)
80000d80:	00000000 	nop
80000d84:	03e00008 	jr	ra
80000d88:	27bd0018 	addiu	sp,sp,24

80000d8c <_put_char>:
80000d8c:	2402000a 	li	v0,10
80000d90:	10820014 	beq	a0,v0,80000de4 <_put_char+0x58>
80000d94:	24020009 	li	v0,9
80000d98:	10820020 	beq	a0,v0,80000e1c <_put_char+0x90>
80000d9c:	3c03b000 	lui	v1,0xb000
80000da0:	8c620004 	lw	v0,4(v1)
80000da4:	00000000 	nop
80000da8:	304507ff 	andi	a1,v0,0x7ff
80000dac:	00052880 	sll	a1,a1,0x2
80000db0:	00651821 	addu	v1,v1,a1
80000db4:	3c053f00 	lui	a1,0x3f00
80000db8:	00852025 	or	a0,a0,a1
80000dbc:	ac642000 	sw	a0,8192(v1)
80000dc0:	24420001 	addiu	v0,v0,1
80000dc4:	3c03b000 	lui	v1,0xb000
80000dc8:	ac620004 	sw	v0,4(v1)
80000dcc:	304207ff 	andi	v0,v0,0x7ff
80000dd0:	2c420488 	sltiu	v0,v0,1160
80000dd4:	1040001d 	beqz	v0,80000e4c <_put_char+0xc0>
80000dd8:	24020001 	li	v0,1
80000ddc:	03e00008 	jr	ra
80000de0:	00000000 	nop
80000de4:	3c02b000 	lui	v0,0xb000
80000de8:	8c420004 	lw	v0,4(v0)
80000dec:	00000000 	nop
80000df0:	304307ff 	andi	v1,v0,0x7ff
80000df4:	2c640028 	sltiu	a0,v1,40
80000df8:	14800005 	bnez	a0,80000e10 <_put_char+0x84>
80000dfc:	00000000 	nop
80000e00:	2463ffd8 	addiu	v1,v1,-40
80000e04:	2c640028 	sltiu	a0,v1,40
80000e08:	1080fffd 	beqz	a0,80000e00 <_put_char+0x74>
80000e0c:	00000000 	nop
80000e10:	24420028 	addiu	v0,v0,40
80000e14:	1000ffeb 	b	80000dc4 <_put_char+0x38>
80000e18:	00431023 	subu	v0,v0,v1
80000e1c:	3c02b000 	lui	v0,0xb000
80000e20:	8c420004 	lw	v0,4(v0)
80000e24:	00000000 	nop
80000e28:	30430003 	andi	v1,v0,0x3
80000e2c:	1060ffe6 	beqz	v1,80000dc8 <_put_char+0x3c>
80000e30:	3c03b000 	lui	v1,0xb000
80000e34:	24420001 	addiu	v0,v0,1
80000e38:	30430003 	andi	v1,v0,0x3
80000e3c:	1460fffd 	bnez	v1,80000e34 <_put_char+0xa8>
80000e40:	3c03b000 	lui	v1,0xb000
80000e44:	1000ffe1 	b	80000dcc <_put_char+0x40>
80000e48:	ac620004 	sw	v0,4(v1)
80000e4c:	27bdffe8 	addiu	sp,sp,-24
80000e50:	afbf0014 	sw	ra,20(sp)
80000e54:	0c000279 	jal	800009e4 <_scroll_screen>
80000e58:	24040001 	li	a0,1
80000e5c:	24020001 	li	v0,1
80000e60:	8fbf0014 	lw	ra,20(sp)
80000e64:	00000000 	nop
80000e68:	03e00008 	jr	ra
80000e6c:	27bd0018 	addiu	sp,sp,24

80000e70 <put_char_>:
80000e70:	27bdffe8 	addiu	sp,sp,-24
80000e74:	afbf0014 	sw	ra,20(sp)
80000e78:	9484005c 	lhu	a0,92(a0)
80000e7c:	0c000363 	jal	80000d8c <_put_char>
80000e80:	00000000 	nop
80000e84:	8fbf0014 	lw	ra,20(sp)
80000e88:	00000000 	nop
80000e8c:	03e00008 	jr	ra
80000e90:	27bd0018 	addiu	sp,sp,24

80000e94 <put_string_>:
80000e94:	27bdffe8 	addiu	sp,sp,-24
80000e98:	afbf0014 	sw	ra,20(sp)
80000e9c:	afb00010 	sw	s0,16(sp)
80000ea0:	8c90005c 	lw	s0,92(a0)
80000ea4:	00000000 	nop
80000ea8:	96040000 	lhu	a0,0(s0)
80000eac:	00000000 	nop
80000eb0:	10800007 	beqz	a0,80000ed0 <put_string_+0x3c>
80000eb4:	24020001 	li	v0,1
80000eb8:	0c000363 	jal	80000d8c <_put_char>
80000ebc:	26100002 	addiu	s0,s0,2
80000ec0:	96040000 	lhu	a0,0(s0)
80000ec4:	00000000 	nop
80000ec8:	1480fffb 	bnez	a0,80000eb8 <put_string_+0x24>
80000ecc:	24020001 	li	v0,1
80000ed0:	8fbf0014 	lw	ra,20(sp)
80000ed4:	8fb00010 	lw	s0,16(sp)
80000ed8:	03e00008 	jr	ra
80000edc:	27bd0018 	addiu	sp,sp,24

80000ee0 <handle_syscall>:
80000ee0:	27bdffe8 	addiu	sp,sp,-24
80000ee4:	afbf0014 	sw	ra,20(sp)
80000ee8:	afb00010 	sw	s0,16(sp)
80000eec:	00e02025 	move	a0,a3
80000ef0:	24d00004 	addiu	s0,a2,4
80000ef4:	40907000 	mtc0	s0,c0_epc
80000ef8:	8ce20060 	lw	v0,96(a3)
80000efc:	00021080 	sll	v0,v0,0x2
80000f00:	3c038000 	lui	v1,0x8000
80000f04:	24632284 	addiu	v1,v1,8836
80000f08:	00431021 	addu	v0,v0,v1
80000f0c:	8c420000 	lw	v0,0(v0)
80000f10:	0040f809 	jalr	v0
80000f14:	00000000 	nop
80000f18:	8fbf0014 	lw	ra,20(sp)
80000f1c:	8fb00010 	lw	s0,16(sp)
80000f20:	03e00008 	jr	ra
80000f24:	27bd0018 	addiu	sp,sp,24

80000f28 <handle_interrupt>:
80000f28:	27bdffe8 	addiu	sp,sp,-24
80000f2c:	30a28000 	andi	v0,a1,0x8000
80000f30:	14400008 	bnez	v0,80000f54 <handle_interrupt+0x2c>
80000f34:	afbf0014 	sw	ra,20(sp)
80000f38:	30a54000 	andi	a1,a1,0x4000
80000f3c:	14a00009 	bnez	a1,80000f64 <handle_interrupt+0x3c>
80000f40:	00000000 	nop
80000f44:	8fbf0014 	lw	ra,20(sp)
80000f48:	00000000 	nop
80000f4c:	03e00008 	jr	ra
80000f50:	27bd0018 	addiu	sp,sp,24
80000f54:	0c00021c 	jal	80000870 <handle_timer>
80000f58:	00000000 	nop
80000f5c:	1000fff9 	b	80000f44 <handle_interrupt+0x1c>
80000f60:	00000000 	nop
80000f64:	0c00013c 	jal	800004f0 <handle_keyboard>
80000f68:	00000000 	nop
80000f6c:	1000fff5 	b	80000f44 <handle_interrupt+0x1c>
80000f70:	00000000 	nop

80000f74 <handle_exception>:
80000f74:	27bdffe8 	addiu	sp,sp,-24
80000f78:	afbf0014 	sw	ra,20(sp)
80000f7c:	30a2007c 	andi	v0,a1,0x7c
80000f80:	3c038000 	lui	v1,0x8000
80000f84:	24632304 	addiu	v1,v1,8964
80000f88:	00431021 	addu	v0,v0,v1
80000f8c:	8c420000 	lw	v0,0(v0)
80000f90:	00000000 	nop
80000f94:	0040f809 	jalr	v0
80000f98:	00000000 	nop
80000f9c:	8fbf0014 	lw	ra,20(sp)
80000fa0:	00000000 	nop
80000fa4:	03e00008 	jr	ra
80000fa8:	27bd0018 	addiu	sp,sp,24

80000fac <kstrcmp_short>:
80000fac:	10800014 	beqz	a0,80001000 <kstrcmp_short+0x54>
80000fb0:	00000000 	nop
80000fb4:	94a30000 	lhu	v1,0(a1)
80000fb8:	94c20000 	lhu	v0,0(a2)
80000fbc:	00000000 	nop
80000fc0:	14620011 	bne	v1,v0,80001008 <kstrcmp_short+0x5c>
80000fc4:	24a50002 	addiu	a1,a1,2
80000fc8:	24c60002 	addiu	a2,a2,2
80000fcc:	00001825 	move	v1,zero
80000fd0:	24630001 	addiu	v1,v1,1
80000fd4:	10830008 	beq	a0,v1,80000ff8 <kstrcmp_short+0x4c>
80000fd8:	00000000 	nop
80000fdc:	94a80000 	lhu	t0,0(a1)
80000fe0:	94c70000 	lhu	a3,0(a2)
80000fe4:	24a50002 	addiu	a1,a1,2
80000fe8:	1107fff9 	beq	t0,a3,80000fd0 <kstrcmp_short+0x24>
80000fec:	24c60002 	addiu	a2,a2,2
80000ff0:	03e00008 	jr	ra
80000ff4:	24020001 	li	v0,1
80000ff8:	03e00008 	jr	ra
80000ffc:	00001025 	move	v0,zero
80001000:	03e00008 	jr	ra
80001004:	00801025 	move	v0,a0
80001008:	03e00008 	jr	ra
8000100c:	24020001 	li	v0,1

80001010 <kstrcmp_char>:
80001010:	10800013 	beqz	a0,80001060 <kstrcmp_char+0x50>
80001014:	00000000 	nop
80001018:	90a30000 	lbu	v1,0(a1)
8000101c:	90c20000 	lbu	v0,0(a2)
80001020:	00000000 	nop
80001024:	14620010 	bne	v1,v0,80001068 <kstrcmp_char+0x58>
80001028:	24a30001 	addiu	v1,a1,1
8000102c:	24c60001 	addiu	a2,a2,1
80001030:	00a42021 	addu	a0,a1,a0
80001034:	10640008 	beq	v1,a0,80001058 <kstrcmp_char+0x48>
80001038:	00000000 	nop
8000103c:	90680000 	lbu	t0,0(v1)
80001040:	90c70000 	lbu	a3,0(a2)
80001044:	24630001 	addiu	v1,v1,1
80001048:	1107fffa 	beq	t0,a3,80001034 <kstrcmp_char+0x24>
8000104c:	24c60001 	addiu	a2,a2,1
80001050:	03e00008 	jr	ra
80001054:	24020001 	li	v0,1
80001058:	03e00008 	jr	ra
8000105c:	00001025 	move	v0,zero
80001060:	03e00008 	jr	ra
80001064:	00801025 	move	v0,a0
80001068:	03e00008 	jr	ra
8000106c:	24020001 	li	v0,1

80001070 <kstrlen_short>:
80001070:	94820000 	lhu	v0,0(a0)
80001074:	00000000 	nop
80001078:	10400009 	beqz	v0,800010a0 <kstrlen_short+0x30>
8000107c:	24840002 	addiu	a0,a0,2
80001080:	00001025 	move	v0,zero
80001084:	24840002 	addiu	a0,a0,2
80001088:	9483fffe 	lhu	v1,-2(a0)
8000108c:	00000000 	nop
80001090:	1460fffc 	bnez	v1,80001084 <kstrlen_short+0x14>
80001094:	24420001 	addiu	v0,v0,1
80001098:	03e00008 	jr	ra
8000109c:	00000000 	nop
800010a0:	03e00008 	jr	ra
800010a4:	00001025 	move	v0,zero

800010a8 <kstrlen_char>:
800010a8:	90820000 	lbu	v0,0(a0)
800010ac:	00000000 	nop
800010b0:	10400009 	beqz	v0,800010d8 <kstrlen_char+0x30>
800010b4:	24840001 	addiu	a0,a0,1
800010b8:	00001025 	move	v0,zero
800010bc:	24840001 	addiu	a0,a0,1
800010c0:	9083ffff 	lbu	v1,-1(a0)
800010c4:	00000000 	nop
800010c8:	1460fffc 	bnez	v1,800010bc <kstrlen_char+0x14>
800010cc:	24420001 	addiu	v0,v0,1
800010d0:	03e00008 	jr	ra
800010d4:	00000000 	nop
800010d8:	03e00008 	jr	ra
800010dc:	00001025 	move	v0,zero

800010e0 <get_sw>:
800010e0:	24040001 	li	a0,1
800010e4:	0000000c 	syscall
800010e8:	03e00008 	jr	ra
800010ec:	00000000 	nop

800010f0 <get_btn>:
800010f0:	24040002 	li	a0,2
800010f4:	0000000c 	syscall
800010f8:	03e00008 	jr	ra
800010fc:	00000000 	nop

80001100 <get_cursor>:
80001100:	24040006 	li	a0,6
80001104:	0000000c 	syscall
80001108:	03e00008 	jr	ra
8000110c:	00000000 	nop

80001110 <clear_screen>:
80001110:	24040008 	li	a0,8
80001114:	0000000c 	syscall
80001118:	03e00008 	jr	ra
8000111c:	00000000 	nop

80001120 <get_char>:
80001120:	2404000d 	li	a0,13
80001124:	0000000c 	syscall
80001128:	03e00008 	jr	ra
8000112c:	00000000 	nop

80001130 <put_seg>:
80001130:	00801025 	move	v0,a0
80001134:	24040000 	li	a0,0
80001138:	00402825 	move	a1,v0
8000113c:	0000000c 	syscall
80001140:	03e00008 	jr	ra
80001144:	00000000 	nop

80001148 <put_led>:
80001148:	00801025 	move	v0,a0
8000114c:	24040003 	li	a0,3
80001150:	00402825 	move	a1,v0
80001154:	0000000c 	syscall
80001158:	03e00008 	jr	ra
8000115c:	00000000 	nop

80001160 <set_vga>:
80001160:	00801025 	move	v0,a0
80001164:	24040004 	li	a0,4
80001168:	00402825 	move	a1,v0
8000116c:	0000000c 	syscall
80001170:	03e00008 	jr	ra
80001174:	00000000 	nop

80001178 <scroll_screen>:
80001178:	00801025 	move	v0,a0
8000117c:	24040007 	li	a0,7
80001180:	00402825 	move	a1,v0
80001184:	0000000c 	syscall
80001188:	03e00008 	jr	ra
8000118c:	00000000 	nop

80001190 <put_char>:
80001190:	00801025 	move	v0,a0
80001194:	2404000a 	li	a0,10
80001198:	00402825 	move	a1,v0
8000119c:	0000000c 	syscall
800011a0:	03e00008 	jr	ra
800011a4:	00000000 	nop

800011a8 <put_string>:
800011a8:	00801025 	move	v0,a0
800011ac:	2404000b 	li	a0,11
800011b0:	00402825 	move	a1,v0
800011b4:	0000000c 	syscall
800011b8:	03e00008 	jr	ra
800011bc:	00000000 	nop

800011c0 <set_cursor>:
800011c0:	00801025 	move	v0,a0
800011c4:	24040005 	li	a0,5
800011c8:	00402825 	move	a1,v0
800011cc:	00a03025 	move	a2,a1
800011d0:	00c03825 	move	a3,a2
800011d4:	0000000c 	syscall
800011d8:	03e00008 	jr	ra
800011dc:	00000000 	nop

800011e0 <put_charAt>:
800011e0:	00801025 	move	v0,a0
800011e4:	24040009 	li	a0,9
800011e8:	00402825 	move	a1,v0
800011ec:	00a03025 	move	a2,a1
800011f0:	00c03825 	move	a3,a2
800011f4:	0000000c 	syscall
800011f8:	03e00008 	jr	ra
800011fc:	00000000 	nop

80001200 <put_pixel>:
80001200:	00801025 	move	v0,a0
80001204:	2404000c 	li	a0,12
80001208:	00402825 	move	a1,v0
8000120c:	00a03025 	move	a2,a1
80001210:	00c03825 	move	a3,a2
80001214:	0000000c 	syscall
80001218:	03e00008 	jr	ra
8000121c:	00000000 	nop

80001220 <getc>:
80001220:	27bdffe8 	addiu	sp,sp,-24
80001224:	afbf0014 	sw	ra,20(sp)
80001228:	afb00010 	sw	s0,16(sp)
8000122c:	3410ffff 	li	s0,0xffff
80001230:	0c000448 	jal	80001120 <get_char>
80001234:	00000000 	nop
80001238:	3042ffff 	andi	v0,v0,0xffff
8000123c:	1050fffc 	beq	v0,s0,80001230 <getc+0x10>
80001240:	00000000 	nop
80001244:	8fbf0014 	lw	ra,20(sp)
80001248:	8fb00010 	lw	s0,16(sp)
8000124c:	03e00008 	jr	ra
80001250:	27bd0018 	addiu	sp,sp,24

80001254 <gets>:
80001254:	1080001e 	beqz	a0,800012d0 <gets+0x7c>
80001258:	00000000 	nop
8000125c:	27bdffd8 	addiu	sp,sp,-40
80001260:	afbf0024 	sw	ra,36(sp)
80001264:	afb40020 	sw	s4,32(sp)
80001268:	afb3001c 	sw	s3,28(sp)
8000126c:	afb20018 	sw	s2,24(sp)
80001270:	afb10014 	sw	s1,20(sp)
80001274:	afb00010 	sw	s0,16(sp)
80001278:	00809025 	move	s2,a0
8000127c:	00a08025 	move	s0,a1
80001280:	00008825 	move	s1,zero
80001284:	2413000a 	li	s3,10
80001288:	0c000488 	jal	80001220 <getc>
8000128c:	00000000 	nop
80001290:	10530006 	beq	v0,s3,800012ac <gets+0x58>
80001294:	a6020000 	sh	v0,0(s0)
80001298:	26310001 	addiu	s1,s1,1
8000129c:	1651fffa 	bne	s2,s1,80001288 <gets+0x34>
800012a0:	26100002 	addiu	s0,s0,2
800012a4:	10000002 	b	800012b0 <gets+0x5c>
800012a8:	00000000 	nop
800012ac:	a6000000 	sh	zero,0(s0)
800012b0:	8fbf0024 	lw	ra,36(sp)
800012b4:	8fb40020 	lw	s4,32(sp)
800012b8:	8fb3001c 	lw	s3,28(sp)
800012bc:	8fb20018 	lw	s2,24(sp)
800012c0:	8fb10014 	lw	s1,20(sp)
800012c4:	8fb00010 	lw	s0,16(sp)
800012c8:	03e00008 	jr	ra
800012cc:	27bd0028 	addiu	sp,sp,40
800012d0:	03e00008 	jr	ra
800012d4:	00000000 	nop

800012d8 <shell>:
800012d8:	27bdfee0 	addiu	sp,sp,-288
800012dc:	afbf011c 	sw	ra,284(sp)
800012e0:	afb20118 	sw	s2,280(sp)
800012e4:	afb10114 	sw	s1,276(sp)
800012e8:	afb00110 	sw	s0,272(sp)
800012ec:	3c118000 	lui	s1,0x8000
800012f0:	263123a4 	addiu	s1,s1,9124
800012f4:	3c108000 	lui	s0,0x8000
800012f8:	26102384 	addiu	s0,s0,9092
800012fc:	3c128000 	lui	s2,0x8000
80001300:	10000003 	b	80001310 <shell+0x38>
80001304:	26522390 	addiu	s2,s2,9104
80001308:	0c00046a 	jal	800011a8 <put_string>
8000130c:	02402025 	move	a0,s2
80001310:	0c00046a 	jal	800011a8 <put_string>
80001314:	02202025 	move	a0,s1
80001318:	27a50010 	addiu	a1,sp,16
8000131c:	0c000495 	jal	80001254 <gets>
80001320:	24040080 	li	a0,128
80001324:	02003025 	move	a2,s0
80001328:	27a50010 	addiu	a1,sp,16
8000132c:	0c0003eb 	jal	80000fac <kstrcmp_short>
80001330:	24040006 	li	a0,6
80001334:	1440fff4 	bnez	v0,80001308 <shell+0x30>
80001338:	00000000 	nop
8000133c:	0c000444 	jal	80001110 <clear_screen>
80001340:	00000000 	nop
80001344:	1000fff2 	b	80001310 <shell+0x38>
80001348:	00000000 	nop
