
os.bin:     file format elf32-littlemips


Disassembly of section .text:

80000000 <_ftext>:
	...

80000180 <exc_start>:
80000180:	3c1a8000 	lui	k0,0x8000
80000184:	275a6000 	addiu	k0,k0,24576
80000188:	8f5b0000 	lw	k1,0(k0)
8000018c:	03a0d025 	move	k0,sp
80000190:	0360e825 	move	sp,k1
80000194:	27bdff84 	addiu	sp,sp,-124
80000198:	afba0078 	sw	k0,120(sp)
8000019c:	10000018 	b	80000200 <save_all>
800001a0:	00000000 	nop

800001a4 <save_all_return>:
800001a4:	03a02025 	move	a0,sp
800001a8:	27bdfff0 	addiu	sp,sp,-16
800001ac:	0c000432 	jal	800010c8 <handle_exception>
800001b0:	00000000 	nop
800001b4:	27bd0010 	addiu	sp,sp,16
800001b8:	10000034 	b	8000028c <restore_all>
800001bc:	00000000 	nop
	...

80000200 <save_all>:
80000200:	401a6000 	mfc0	k0,c0_status
80000204:	afba0074 	sw	k0,116(sp)
80000208:	401a6800 	mfc0	k0,c0_cause
8000020c:	afba0070 	sw	k0,112(sp)
80000210:	401a7000 	mfc0	k0,c0_epc
80000214:	afba006c 	sw	k0,108(sp)
80000218:	afa20068 	sw	v0,104(sp)
8000021c:	afa30064 	sw	v1,100(sp)
80000220:	afa40060 	sw	a0,96(sp)
80000224:	afa5005c 	sw	a1,92(sp)
80000228:	afa60058 	sw	a2,88(sp)
8000022c:	afa70054 	sw	a3,84(sp)
80000230:	afa80050 	sw	t0,80(sp)
80000234:	afa9004c 	sw	t1,76(sp)
80000238:	afaa0048 	sw	t2,72(sp)
8000023c:	afab0044 	sw	t3,68(sp)
80000240:	afac0040 	sw	t4,64(sp)
80000244:	afad003c 	sw	t5,60(sp)
80000248:	afae0038 	sw	t6,56(sp)
8000024c:	afaf0034 	sw	t7,52(sp)
80000250:	afb00030 	sw	s0,48(sp)
80000254:	afb1002c 	sw	s1,44(sp)
80000258:	afb20028 	sw	s2,40(sp)
8000025c:	afb30024 	sw	s3,36(sp)
80000260:	afb40020 	sw	s4,32(sp)
80000264:	afb5001c 	sw	s5,28(sp)
80000268:	afb60018 	sw	s6,24(sp)
8000026c:	afb70014 	sw	s7,20(sp)
80000270:	afb80010 	sw	t8,16(sp)
80000274:	afb9000c 	sw	t9,12(sp)
80000278:	afbc0008 	sw	gp,8(sp)
8000027c:	afbe0004 	sw	s8,4(sp)
80000280:	afbf0000 	sw	ra,0(sp)
80000284:	1000ffc7 	b	800001a4 <save_all_return>
80000288:	00000000 	nop

8000028c <restore_all>:
8000028c:	8fba0074 	lw	k0,116(sp)
80000290:	409a6000 	mtc0	k0,c0_status
80000294:	8fba0070 	lw	k0,112(sp)
80000298:	409a6800 	mtc0	k0,c0_cause
8000029c:	8fba006c 	lw	k0,108(sp)
800002a0:	409a7000 	mtc0	k0,c0_epc
800002a4:	8fa20068 	lw	v0,104(sp)
800002a8:	8fa30064 	lw	v1,100(sp)
800002ac:	8fa40060 	lw	a0,96(sp)
800002b0:	8fa5005c 	lw	a1,92(sp)
800002b4:	8fa60058 	lw	a2,88(sp)
800002b8:	8fa70054 	lw	a3,84(sp)
800002bc:	8fa80050 	lw	t0,80(sp)
800002c0:	8fa9004c 	lw	t1,76(sp)
800002c4:	8faa0048 	lw	t2,72(sp)
800002c8:	8fab0044 	lw	t3,68(sp)
800002cc:	8fac0040 	lw	t4,64(sp)
800002d0:	8fad003c 	lw	t5,60(sp)
800002d4:	8fae0038 	lw	t6,56(sp)
800002d8:	8faf0034 	lw	t7,52(sp)
800002dc:	8fb00030 	lw	s0,48(sp)
800002e0:	8fb1002c 	lw	s1,44(sp)
800002e4:	8fb20028 	lw	s2,40(sp)
800002e8:	8fb30024 	lw	s3,36(sp)
800002ec:	8fb40020 	lw	s4,32(sp)
800002f0:	8fb5001c 	lw	s5,28(sp)
800002f4:	8fb60018 	lw	s6,24(sp)
800002f8:	8fb70014 	lw	s7,20(sp)
800002fc:	8fb80010 	lw	t8,16(sp)
80000300:	8fb9000c 	lw	t9,12(sp)
80000304:	8fbc0008 	lw	gp,8(sp)
80000308:	8fbe0004 	lw	s8,4(sp)
8000030c:	8fbf0000 	lw	ra,0(sp)
80000310:	23bd007c 	addi	sp,sp,124
80000314:	3c1a8000 	lui	k0,0x8000
80000318:	275a6000 	addiu	k0,k0,24576
8000031c:	af5d0000 	sw	sp,0(k0)
80000320:	8fbdfffc 	lw	sp,-4(sp)
80000324:	42000018 	eret
	...

80000400 <init_start>:
80000400:	0000d020 	add	k0,zero,zero
80000404:	409a5000 	mtc0	k0,c0_entryhi
80000408:	3c1a8000 	lui	k0,0x8000
8000040c:	275a6000 	addiu	k0,k0,24576
80000410:	8f5d0000 	lw	sp,0(k0)
80000414:	27bdfff0 	addiu	sp,sp,-16
80000418:	0c000117 	jal	8000045c <init_all>
8000041c:	00000000 	nop
80000420:	27bd0010 	addiu	sp,sp,16

80000424 <main_loop>:
80000424:	3c048000 	lui	a0,0x8000
80000428:	24846004 	addiu	a0,a0,24580
8000042c:	27bdfff0 	addiu	sp,sp,-16
80000430:	0c000cee 	jal	800033b8 <load__>
80000434:	00000000 	nop
80000438:	27bd0010 	addiu	sp,sp,16
8000043c:	40827000 	mtc0	v0,c0_epc
80000440:	3c1a8000 	lui	k0,0x8000
80000444:	275a6000 	addiu	k0,k0,24576
80000448:	af5d0000 	sw	sp,0(k0)
8000044c:	241d4000 	li	sp,16384
80000450:	42000018 	eret
80000454:	08000109 	j	80000424 <main_loop>
80000458:	00000000 	nop

8000045c <init_all>:
8000045c:	27bdffe8 	addiu	sp,sp,-24
80000460:	afbf0014 	sw	ra,20(sp)
80000464:	3c02b000 	lui	v0,0xb000
80000468:	24422000 	addiu	v0,v0,8192
8000046c:	3c03b000 	lui	v1,0xb000
80000470:	246332c0 	addiu	v1,v1,12992
80000474:	ac400000 	sw	zero,0(v0)
80000478:	24420004 	addiu	v0,v0,4
8000047c:	1443fffd 	bne	v0,v1,80000474 <init_all+0x18>
80000480:	00000000 	nop
80000484:	3c02b000 	lui	v0,0xb000
80000488:	24030001 	li	v1,1
8000048c:	ac430000 	sw	v1,0(v0)
80000490:	3c03013f 	lui	v1,0x13f
80000494:	ac430004 	sw	v1,4(v0)
80000498:	ac40000c 	sw	zero,12(v0)
8000049c:	3c03aa55 	lui	v1,0xaa55
800004a0:	246355aa 	addiu	v1,v1,21930
800004a4:	0c000442 	jal	80001108 <init_exc>
800004a8:	ac430010 	sw	v1,16(v0)
800004ac:	0c0003b9 	jal	80000ee4 <init_syscall>
800004b0:	00000000 	nop
800004b4:	0c00013b 	jal	800004ec <init_keybuf>
800004b8:	00000000 	nop
800004bc:	0c000dc4 	jal	80003710 <init_input>
800004c0:	00000000 	nop
800004c4:	0c000209 	jal	80000824 <init_timer>
800004c8:	00000000 	nop
800004cc:	0c000880 	jal	80002200 <init_fs>
800004d0:	00000000 	nop
800004d4:	0c000cd7 	jal	8000335c <init_task>
800004d8:	00000000 	nop
800004dc:	8fbf0014 	lw	ra,20(sp)
800004e0:	00000000 	nop
800004e4:	03e00008 	jr	ra
800004e8:	27bd0018 	addiu	sp,sp,24

800004ec <init_keybuf>:
800004ec:	3c028000 	lui	v0,0x8000
800004f0:	24426064 	addiu	v0,v0,24676
800004f4:	3c038000 	lui	v1,0x8000
800004f8:	24636074 	addiu	v1,v1,24692
800004fc:	24440010 	addiu	a0,v0,16
80000500:	a0400000 	sb	zero,0(v0)
80000504:	a0600000 	sb	zero,0(v1)
80000508:	24420001 	addiu	v0,v0,1
8000050c:	1444fffc 	bne	v0,a0,80000500 <init_keybuf+0x14>
80000510:	24630001 	addiu	v1,v1,1
80000514:	3c028000 	lui	v0,0x8000
80000518:	2403001f 	li	v1,31
8000051c:	ac436020 	sw	v1,24608(v0)
80000520:	3c028000 	lui	v0,0x8000
80000524:	ac40601c 	sw	zero,24604(v0)
80000528:	3c028000 	lui	v0,0x8000
8000052c:	ac406018 	sw	zero,24600(v0)
80000530:	3c028000 	lui	v0,0x8000
80000534:	03e00008 	jr	ra
80000538:	ac406014 	sw	zero,24596(v0)

8000053c <get_from_keybuf>:
8000053c:	3c028000 	lui	v0,0x8000
80000540:	8c43601c 	lw	v1,24604(v0)
80000544:	3c028000 	lui	v0,0x8000
80000548:	8c426020 	lw	v0,24608(v0)
8000054c:	00000000 	nop
80000550:	24420001 	addiu	v0,v0,1
80000554:	3042001f 	andi	v0,v0,0x1f
80000558:	1043000a 	beq	v0,v1,80000584 <get_from_keybuf+0x48>
8000055c:	3c048000 	lui	a0,0x8000
80000560:	00031040 	sll	v0,v1,0x1
80000564:	24846024 	addiu	a0,a0,24612
80000568:	00441021 	addu	v0,v0,a0
8000056c:	94420000 	lhu	v0,0(v0)
80000570:	24630001 	addiu	v1,v1,1
80000574:	3063001f 	andi	v1,v1,0x1f
80000578:	3c048000 	lui	a0,0x8000
8000057c:	03e00008 	jr	ra
80000580:	ac83601c 	sw	v1,24604(a0)
80000584:	03e00008 	jr	ra
80000588:	3402ffff 	li	v0,0xffff

8000058c <handle_keyboard>:
8000058c:	3c02b000 	lui	v0,0xb000
80000590:	90450014 	lbu	a1,20(v0)
80000594:	3c028000 	lui	v0,0x8000
80000598:	8c426018 	lw	v0,24600(v0)
8000059c:	24030001 	li	v1,1
800005a0:	10430055 	beq	v0,v1,800006f8 <handle_keyboard+0x16c>
800005a4:	000518c2 	srl	v1,a1,0x3
800005a8:	10400007 	beqz	v0,800005c8 <handle_keyboard+0x3c>
800005ac:	24030002 	li	v1,2
800005b0:	1043006e 	beq	v0,v1,8000076c <handle_keyboard+0x1e0>
800005b4:	24030003 	li	v1,3
800005b8:	10430089 	beq	v0,v1,800007e0 <handle_keyboard+0x254>
800005bc:	00000000 	nop
800005c0:	03e00008 	jr	ra
800005c4:	00000000 	nop
800005c8:	240200e0 	li	v0,224
800005cc:	10a20037 	beq	a1,v0,800006ac <handle_keyboard+0x120>
800005d0:	3c028000 	lui	v0,0x8000
800005d4:	240200f0 	li	v0,240
800005d8:	10a20037 	beq	a1,v0,800006b8 <handle_keyboard+0x12c>
800005dc:	30a60007 	andi	a2,a1,0x7
800005e0:	000518c2 	srl	v1,a1,0x3
800005e4:	3c028000 	lui	v0,0x8000
800005e8:	24426074 	addiu	v0,v0,24692
800005ec:	00621021 	addu	v0,v1,v0
800005f0:	90440000 	lbu	a0,0(v0)
800005f4:	00000000 	nop
800005f8:	00c41007 	srav	v0,a0,a2
800005fc:	30420001 	andi	v0,v0,0x1
80000600:	14400086 	bnez	v0,8000081c <handle_keyboard+0x290>
80000604:	00000000 	nop
80000608:	27bdffe8 	addiu	sp,sp,-24
8000060c:	afbf0014 	sw	ra,20(sp)
80000610:	3c028000 	lui	v0,0x8000
80000614:	24426074 	addiu	v0,v0,24692
80000618:	00621821 	addu	v1,v1,v0
8000061c:	24020001 	li	v0,1
80000620:	00c21004 	sllv	v0,v0,a2
80000624:	00441025 	or	v0,v0,a0
80000628:	a0620000 	sb	v0,0(v1)
8000062c:	24020058 	li	v0,88
80000630:	10a20025 	beq	a1,v0,800006c8 <handle_keyboard+0x13c>
80000634:	3c028000 	lui	v0,0x8000
80000638:	8c446014 	lw	a0,24596(v0)
8000063c:	0c000dd7 	jal	8000375c <input_key>
80000640:	00000000 	nop
80000644:	3403ffff 	li	v1,0xffff
80000648:	10430012 	beq	v0,v1,80000694 <handle_keyboard+0x108>
8000064c:	3c038000 	lui	v1,0x8000
80000650:	8c636020 	lw	v1,24608(v1)
80000654:	00000000 	nop
80000658:	24640002 	addiu	a0,v1,2
8000065c:	3084001f 	andi	a0,a0,0x1f
80000660:	3c058000 	lui	a1,0x8000
80000664:	8ca5601c 	lw	a1,24604(a1)
80000668:	00000000 	nop
8000066c:	10850009 	beq	a0,a1,80000694 <handle_keyboard+0x108>
80000670:	24630001 	addiu	v1,v1,1
80000674:	3063001f 	andi	v1,v1,0x1f
80000678:	3c048000 	lui	a0,0x8000
8000067c:	ac836020 	sw	v1,24608(a0)
80000680:	00031840 	sll	v1,v1,0x1
80000684:	3c048000 	lui	a0,0x8000
80000688:	24846024 	addiu	a0,a0,24612
8000068c:	00641821 	addu	v1,v1,a0
80000690:	a4620000 	sh	v0,0(v1)
80000694:	3c028000 	lui	v0,0x8000
80000698:	ac406018 	sw	zero,24600(v0)
8000069c:	8fbf0014 	lw	ra,20(sp)
800006a0:	00000000 	nop
800006a4:	03e00008 	jr	ra
800006a8:	27bd0018 	addiu	sp,sp,24
800006ac:	24030002 	li	v1,2
800006b0:	03e00008 	jr	ra
800006b4:	ac436018 	sw	v1,24600(v0)
800006b8:	3c028000 	lui	v0,0x8000
800006bc:	24030001 	li	v1,1
800006c0:	03e00008 	jr	ra
800006c4:	ac436018 	sw	v1,24600(v0)
800006c8:	8c426014 	lw	v0,24596(v0)
800006cc:	00000000 	nop
800006d0:	10400005 	beqz	v0,800006e8 <handle_keyboard+0x15c>
800006d4:	24030002 	li	v1,2
800006d8:	1443ffd7 	bne	v0,v1,80000638 <handle_keyboard+0xac>
800006dc:	3c028000 	lui	v0,0x8000
800006e0:	1000ffd5 	b	80000638 <handle_keyboard+0xac>
800006e4:	ac406014 	sw	zero,24596(v0)
800006e8:	3c028000 	lui	v0,0x8000
800006ec:	24030001 	li	v1,1
800006f0:	1000ffd1 	b	80000638 <handle_keyboard+0xac>
800006f4:	ac436014 	sw	v1,24596(v0)
800006f8:	3c028000 	lui	v0,0x8000
800006fc:	24426074 	addiu	v0,v0,24692
80000700:	00621821 	addu	v1,v1,v0
80000704:	30a40007 	andi	a0,a1,0x7
80000708:	24020001 	li	v0,1
8000070c:	00821004 	sllv	v0,v0,a0
80000710:	00021027 	nor	v0,zero,v0
80000714:	90640000 	lbu	a0,0(v1)
80000718:	00000000 	nop
8000071c:	00441024 	and	v0,v0,a0
80000720:	a0620000 	sb	v0,0(v1)
80000724:	24020058 	li	v0,88
80000728:	10a20004 	beq	a1,v0,8000073c <handle_keyboard+0x1b0>
8000072c:	00000000 	nop
80000730:	3c028000 	lui	v0,0x8000
80000734:	03e00008 	jr	ra
80000738:	ac406018 	sw	zero,24600(v0)
8000073c:	3c028000 	lui	v0,0x8000
80000740:	8c436014 	lw	v1,24596(v0)
80000744:	24020001 	li	v0,1
80000748:	10620004 	beq	v1,v0,8000075c <handle_keyboard+0x1d0>
8000074c:	00000000 	nop
80000750:	3c028000 	lui	v0,0x8000
80000754:	1000fff6 	b	80000730 <handle_keyboard+0x1a4>
80000758:	ac406014 	sw	zero,24596(v0)
8000075c:	3c028000 	lui	v0,0x8000
80000760:	24030002 	li	v1,2
80000764:	1000fff2 	b	80000730 <handle_keyboard+0x1a4>
80000768:	ac436014 	sw	v1,24596(v0)
8000076c:	240200f0 	li	v0,240
80000770:	10a2000e 	beq	a1,v0,800007ac <handle_keyboard+0x220>
80000774:	3c028000 	lui	v0,0x8000
80000778:	000518c2 	srl	v1,a1,0x3
8000077c:	3c028000 	lui	v0,0x8000
80000780:	24426064 	addiu	v0,v0,24676
80000784:	00621021 	addu	v0,v1,v0
80000788:	90440000 	lbu	a0,0(v0)
8000078c:	30a50007 	andi	a1,a1,0x7
80000790:	00a41007 	srav	v0,a0,a1
80000794:	30420001 	andi	v0,v0,0x1
80000798:	10400007 	beqz	v0,800007b8 <handle_keyboard+0x22c>
8000079c:	00000000 	nop
800007a0:	3c028000 	lui	v0,0x8000
800007a4:	03e00008 	jr	ra
800007a8:	ac406018 	sw	zero,24600(v0)
800007ac:	24030003 	li	v1,3
800007b0:	03e00008 	jr	ra
800007b4:	ac436018 	sw	v1,24600(v0)
800007b8:	3c028000 	lui	v0,0x8000
800007bc:	24426064 	addiu	v0,v0,24676
800007c0:	00621821 	addu	v1,v1,v0
800007c4:	24020001 	li	v0,1
800007c8:	00a22804 	sllv	a1,v0,a1
800007cc:	00a42825 	or	a1,a1,a0
800007d0:	a0650000 	sb	a1,0(v1)
800007d4:	3c028000 	lui	v0,0x8000
800007d8:	03e00008 	jr	ra
800007dc:	ac406018 	sw	zero,24600(v0)
800007e0:	000518c2 	srl	v1,a1,0x3
800007e4:	3c028000 	lui	v0,0x8000
800007e8:	24426064 	addiu	v0,v0,24676
800007ec:	00621821 	addu	v1,v1,v0
800007f0:	30a50007 	andi	a1,a1,0x7
800007f4:	24020001 	li	v0,1
800007f8:	00a22804 	sllv	a1,v0,a1
800007fc:	00052827 	nor	a1,zero,a1
80000800:	90620000 	lbu	v0,0(v1)
80000804:	00000000 	nop
80000808:	00a22824 	and	a1,a1,v0
8000080c:	a0650000 	sb	a1,0(v1)
80000810:	3c028000 	lui	v0,0x8000
80000814:	03e00008 	jr	ra
80000818:	ac406018 	sw	zero,24600(v0)
8000081c:	03e00008 	jr	ra
80000820:	00000000 	nop

80000824 <init_timer>:
80000824:	27bdfff8 	addiu	sp,sp,-8
80000828:	afb00004 	sw	s0,4(sp)
8000082c:	3c038000 	lui	v1,0x8000
80000830:	24020030 	li	v0,48
80000834:	a4626084 	sh	v0,24708(v1)
80000838:	24636084 	addiu	v1,v1,24708
8000083c:	a4620002 	sh	v0,2(v1)
80000840:	2404003a 	li	a0,58
80000844:	a4640004 	sh	a0,4(v1)
80000848:	a4620006 	sh	v0,6(v1)
8000084c:	a4620008 	sh	v0,8(v1)
80000850:	a464000a 	sh	a0,10(v1)
80000854:	a462000c 	sh	v0,12(v1)
80000858:	a462000e 	sh	v0,14(v1)
8000085c:	00601025 	move	v0,v1
80000860:	24650010 	addiu	a1,v1,16
80000864:	3c04b000 	lui	a0,0xb000
80000868:	248432a0 	addiu	a0,a0,12960
8000086c:	3c063f00 	lui	a2,0x3f00
80000870:	94430000 	lhu	v1,0(v0)
80000874:	00661825 	or	v1,v1,a2
80000878:	ac830000 	sw	v1,0(a0)
8000087c:	24420002 	addiu	v0,v0,2
80000880:	1445fffb 	bne	v0,a1,80000870 <init_timer+0x4c>
80000884:	24840004 	addiu	a0,a0,4
80000888:	3c1002fa 	lui	s0,0x2fa
8000088c:	3610f080 	ori	s0,s0,0xf080
80000890:	40804800 	mtc0	zero,c0_count
80000894:	40905800 	mtc0	s0,c0_compare
80000898:	8fb00004 	lw	s0,4(sp)
8000089c:	03e00008 	jr	ra
800008a0:	27bd0008 	addiu	sp,sp,8

800008a4 <handle_timer>:
800008a4:	27bdfff8 	addiu	sp,sp,-8
800008a8:	afb00004 	sw	s0,4(sp)
800008ac:	3c028000 	lui	v0,0x8000
800008b0:	94426092 	lhu	v0,24722(v0)
800008b4:	24030039 	li	v1,57
800008b8:	10430016 	beq	v0,v1,80000914 <handle_timer+0x70>
800008bc:	24420001 	addiu	v0,v0,1
800008c0:	3c038000 	lui	v1,0x8000
800008c4:	a4626092 	sh	v0,24722(v1)
800008c8:	3c028000 	lui	v0,0x8000
800008cc:	24426084 	addiu	v0,v0,24708
800008d0:	24460010 	addiu	a2,v0,16
800008d4:	3c04b000 	lui	a0,0xb000
800008d8:	248432a0 	addiu	a0,a0,12960
800008dc:	3c053f00 	lui	a1,0x3f00
800008e0:	94430000 	lhu	v1,0(v0)
800008e4:	00651825 	or	v1,v1,a1
800008e8:	ac830000 	sw	v1,0(a0)
800008ec:	24420002 	addiu	v0,v0,2
800008f0:	1446fffb 	bne	v0,a2,800008e0 <handle_timer+0x3c>
800008f4:	24840004 	addiu	a0,a0,4
800008f8:	3c1002fa 	lui	s0,0x2fa
800008fc:	3610f080 	ori	s0,s0,0xf080
80000900:	40804800 	mtc0	zero,c0_count
80000904:	40905800 	mtc0	s0,c0_compare
80000908:	8fb00004 	lw	s0,4(sp)
8000090c:	03e00008 	jr	ra
80000910:	27bd0008 	addiu	sp,sp,8
80000914:	3c028000 	lui	v0,0x8000
80000918:	24426084 	addiu	v0,v0,24708
8000091c:	24030030 	li	v1,48
80000920:	a443000e 	sh	v1,14(v0)
80000924:	9442000c 	lhu	v0,12(v0)
80000928:	24030035 	li	v1,53
8000092c:	10430004 	beq	v0,v1,80000940 <handle_timer+0x9c>
80000930:	24420001 	addiu	v0,v0,1
80000934:	3c038000 	lui	v1,0x8000
80000938:	1000ffe3 	b	800008c8 <handle_timer+0x24>
8000093c:	a4626090 	sh	v0,24720(v1)
80000940:	3c028000 	lui	v0,0x8000
80000944:	24426084 	addiu	v0,v0,24708
80000948:	24030030 	li	v1,48
8000094c:	a443000c 	sh	v1,12(v0)
80000950:	94420008 	lhu	v0,8(v0)
80000954:	24030039 	li	v1,57
80000958:	10430004 	beq	v0,v1,8000096c <handle_timer+0xc8>
8000095c:	24420001 	addiu	v0,v0,1
80000960:	3c038000 	lui	v1,0x8000
80000964:	1000ffd8 	b	800008c8 <handle_timer+0x24>
80000968:	a462608c 	sh	v0,24716(v1)
8000096c:	3c028000 	lui	v0,0x8000
80000970:	24426084 	addiu	v0,v0,24708
80000974:	24030030 	li	v1,48
80000978:	a4430008 	sh	v1,8(v0)
8000097c:	94420006 	lhu	v0,6(v0)
80000980:	24030035 	li	v1,53
80000984:	10430004 	beq	v0,v1,80000998 <handle_timer+0xf4>
80000988:	24420001 	addiu	v0,v0,1
8000098c:	3c038000 	lui	v1,0x8000
80000990:	1000ffcd 	b	800008c8 <handle_timer+0x24>
80000994:	a462608a 	sh	v0,24714(v1)
80000998:	3c028000 	lui	v0,0x8000
8000099c:	24436084 	addiu	v1,v0,24708
800009a0:	24040030 	li	a0,48
800009a4:	a4640006 	sh	a0,6(v1)
800009a8:	94436084 	lhu	v1,24708(v0)
800009ac:	24020032 	li	v0,50
800009b0:	10620008 	beq	v1,v0,800009d4 <handle_timer+0x130>
800009b4:	3c028000 	lui	v0,0x8000
800009b8:	94426086 	lhu	v0,24710(v0)
800009bc:	24040039 	li	a0,57
800009c0:	1044000e 	beq	v0,a0,800009fc <handle_timer+0x158>
800009c4:	24420001 	addiu	v0,v0,1
800009c8:	3c038000 	lui	v1,0x8000
800009cc:	1000ffbe 	b	800008c8 <handle_timer+0x24>
800009d0:	a4626086 	sh	v0,24710(v1)
800009d4:	94446086 	lhu	a0,24710(v0)
800009d8:	24020033 	li	v0,51
800009dc:	1482fff6 	bne	a0,v0,800009b8 <handle_timer+0x114>
800009e0:	3c028000 	lui	v0,0x8000
800009e4:	3c028000 	lui	v0,0x8000
800009e8:	24030030 	li	v1,48
800009ec:	a4436084 	sh	v1,24708(v0)
800009f0:	24426084 	addiu	v0,v0,24708
800009f4:	1000ffb4 	b	800008c8 <handle_timer+0x24>
800009f8:	a4430002 	sh	v1,2(v0)
800009fc:	3c028000 	lui	v0,0x8000
80000a00:	24446084 	addiu	a0,v0,24708
80000a04:	24050030 	li	a1,48
80000a08:	a4850002 	sh	a1,2(a0)
80000a0c:	24630001 	addiu	v1,v1,1
80000a10:	1000ffae 	b	800008cc <handle_timer+0x28>
80000a14:	a4436084 	sh	v1,24708(v0)

80000a18 <put_seg_>:
80000a18:	8c83005c 	lw	v1,92(a0)
80000a1c:	3c02b000 	lui	v0,0xb000
80000a20:	ac430010 	sw	v1,16(v0)
80000a24:	03e00008 	jr	ra
80000a28:	24020001 	li	v0,1

80000a2c <get_sw_>:
80000a2c:	3c02b000 	lui	v0,0xb000
80000a30:	8c420008 	lw	v0,8(v0)
80000a34:	03e00008 	jr	ra
80000a38:	00000000 	nop

80000a3c <get_btn_>:
80000a3c:	3c02b000 	lui	v0,0xb000
80000a40:	8c42001c 	lw	v0,28(v0)
80000a44:	03e00008 	jr	ra
80000a48:	00000000 	nop

80000a4c <put_led_>:
80000a4c:	8c83005c 	lw	v1,92(a0)
80000a50:	3c02b000 	lui	v0,0xb000
80000a54:	ac43000c 	sw	v1,12(v0)
80000a58:	03e00008 	jr	ra
80000a5c:	24020001 	li	v0,1

80000a60 <set_vga_>:
80000a60:	3c05b000 	lui	a1,0xb000
80000a64:	8ca20000 	lw	v0,0(a1)
80000a68:	2403fffc 	li	v1,-4
80000a6c:	00431024 	and	v0,v0,v1
80000a70:	8c83005c 	lw	v1,92(a0)
80000a74:	00000000 	nop
80000a78:	30630011 	andi	v1,v1,0x11
80000a7c:	00431025 	or	v0,v0,v1
80000a80:	aca20000 	sw	v0,0(a1)
80000a84:	03e00008 	jr	ra
80000a88:	24020001 	li	v0,1

80000a8c <set_cursor_>:
80000a8c:	8c850058 	lw	a1,88(a0)
80000a90:	8c82005c 	lw	v0,92(a0)
80000a94:	00000000 	nop
80000a98:	00021600 	sll	v0,v0,0x18
80000a9c:	3c031100 	lui	v1,0x1100
80000aa0:	00431024 	and	v0,v0,v1
80000aa4:	8c830054 	lw	v1,84(a0)
80000aa8:	00000000 	nop
80000aac:	306307ff 	andi	v1,v1,0x7ff
80000ab0:	00431025 	or	v0,v0,v1
80000ab4:	90a30002 	lbu	v1,2(a1)
80000ab8:	00000000 	nop
80000abc:	00031982 	srl	v1,v1,0x6
80000ac0:	00031d00 	sll	v1,v1,0x14
80000ac4:	00431025 	or	v0,v0,v1
80000ac8:	90a30001 	lbu	v1,1(a1)
80000acc:	00000000 	nop
80000ad0:	00031982 	srl	v1,v1,0x6
80000ad4:	00031c80 	sll	v1,v1,0x12
80000ad8:	00431025 	or	v0,v0,v1
80000adc:	90a30000 	lbu	v1,0(a1)
80000ae0:	00000000 	nop
80000ae4:	00031982 	srl	v1,v1,0x6
80000ae8:	00031c00 	sll	v1,v1,0x10
80000aec:	00621025 	or	v0,v1,v0
80000af0:	3c03b000 	lui	v1,0xb000
80000af4:	ac620004 	sw	v0,4(v1)
80000af8:	03e00008 	jr	ra
80000afc:	24020001 	li	v0,1

80000b00 <get_cursor_>:
80000b00:	3c02b000 	lui	v0,0xb000
80000b04:	8c420004 	lw	v0,4(v0)
80000b08:	03e00008 	jr	ra
80000b0c:	00000000 	nop

80000b10 <clear_screen_>:
80000b10:	3c02b000 	lui	v0,0xb000
80000b14:	24422000 	addiu	v0,v0,8192
80000b18:	3c03b000 	lui	v1,0xb000
80000b1c:	24633220 	addiu	v1,v1,12832
80000b20:	ac400000 	sw	zero,0(v0)
80000b24:	24420004 	addiu	v0,v0,4
80000b28:	1443fffd 	bne	v0,v1,80000b20 <clear_screen_+0x10>
80000b2c:	2404f800 	li	a0,-2048
80000b30:	3c03b000 	lui	v1,0xb000
80000b34:	8c620004 	lw	v0,4(v1)
80000b38:	00000000 	nop
80000b3c:	00441024 	and	v0,v0,a0
80000b40:	ac620004 	sw	v0,4(v1)
80000b44:	03e00008 	jr	ra
80000b48:	24020001 	li	v0,1

80000b4c <put_charAt_>:
80000b4c:	8c820058 	lw	v0,88(a0)
80000b50:	00000000 	nop
80000b54:	2c430488 	sltiu	v1,v0,1160
80000b58:	10600027 	beqz	v1,80000bf8 <put_charAt_+0xac>
80000b5c:	3c06b000 	lui	a2,0xb000
80000b60:	8c830054 	lw	v1,84(a0)
80000b64:	00021080 	sll	v0,v0,0x2
80000b68:	00c23021 	addu	a2,a2,v0
80000b6c:	90620002 	lbu	v0,2(v1)
80000b70:	00000000 	nop
80000b74:	00021182 	srl	v0,v0,0x6
80000b78:	00021700 	sll	v0,v0,0x1c
80000b7c:	90650001 	lbu	a1,1(v1)
80000b80:	00000000 	nop
80000b84:	00052982 	srl	a1,a1,0x6
80000b88:	00052e80 	sll	a1,a1,0x1a
80000b8c:	00451025 	or	v0,v0,a1
80000b90:	90650000 	lbu	a1,0(v1)
80000b94:	00000000 	nop
80000b98:	00052982 	srl	a1,a1,0x6
80000b9c:	00052e00 	sll	a1,a1,0x18
80000ba0:	00451025 	or	v0,v0,a1
80000ba4:	90650005 	lbu	a1,5(v1)
80000ba8:	00000000 	nop
80000bac:	00052982 	srl	a1,a1,0x6
80000bb0:	00052d00 	sll	a1,a1,0x14
80000bb4:	00451025 	or	v0,v0,a1
80000bb8:	90650004 	lbu	a1,4(v1)
80000bbc:	00000000 	nop
80000bc0:	00052982 	srl	a1,a1,0x6
80000bc4:	00052c80 	sll	a1,a1,0x12
80000bc8:	00451025 	or	v0,v0,a1
80000bcc:	90630003 	lbu	v1,3(v1)
80000bd0:	00000000 	nop
80000bd4:	00031982 	srl	v1,v1,0x6
80000bd8:	00031c00 	sll	v1,v1,0x10
80000bdc:	00431025 	or	v0,v0,v1
80000be0:	9483005c 	lhu	v1,92(a0)
80000be4:	00000000 	nop
80000be8:	00431025 	or	v0,v0,v1
80000bec:	acc22000 	sw	v0,8192(a2)
80000bf0:	03e00008 	jr	ra
80000bf4:	24020001 	li	v0,1
80000bf8:	03e00008 	jr	ra
80000bfc:	00001025 	move	v0,zero

80000c00 <put_pixel_>:
80000c00:	8c85005c 	lw	a1,92(a0)
80000c04:	8c830058 	lw	v1,88(a0)
80000c08:	2ca20280 	sltiu	v0,a1,640
80000c0c:	1040001c 	beqz	v0,80000c80 <put_pixel_+0x80>
80000c10:	00000000 	nop
80000c14:	2c6201e0 	sltiu	v0,v1,480
80000c18:	10400019 	beqz	v0,80000c80 <put_pixel_+0x80>
80000c1c:	00000000 	nop
80000c20:	8c860054 	lw	a2,84(a0)
80000c24:	00031080 	sll	v0,v1,0x2
80000c28:	00431021 	addu	v0,v0,v1
80000c2c:	000211c0 	sll	v0,v0,0x7
80000c30:	00451021 	addu	v0,v0,a1
80000c34:	00021080 	sll	v0,v0,0x2
80000c38:	3c04b001 	lui	a0,0xb001
80000c3c:	00822021 	addu	a0,a0,v0
80000c40:	90c20002 	lbu	v0,2(a2)
80000c44:	00000000 	nop
80000c48:	00021142 	srl	v0,v0,0x5
80000c4c:	00021180 	sll	v0,v0,0x6
80000c50:	90c30001 	lbu	v1,1(a2)
80000c54:	00000000 	nop
80000c58:	00031942 	srl	v1,v1,0x5
80000c5c:	000318c0 	sll	v1,v1,0x3
80000c60:	00431025 	or	v0,v0,v1
80000c64:	90c30000 	lbu	v1,0(a2)
80000c68:	00000000 	nop
80000c6c:	00031942 	srl	v1,v1,0x5
80000c70:	00431025 	or	v0,v0,v1
80000c74:	a4820000 	sh	v0,0(a0)
80000c78:	03e00008 	jr	ra
80000c7c:	24020001 	li	v0,1
80000c80:	03e00008 	jr	ra
80000c84:	00001025 	move	v0,zero

80000c88 <scroll_screen_>:
80000c88:	27bdffe8 	addiu	sp,sp,-24
80000c8c:	afbf0014 	sw	ra,20(sp)
80000c90:	8c84005c 	lw	a0,92(a0)
80000c94:	0c000b3f 	jal	80002cfc <_scroll_screen>
80000c98:	00000000 	nop
80000c9c:	8fbf0014 	lw	ra,20(sp)
80000ca0:	00000000 	nop
80000ca4:	03e00008 	jr	ra
80000ca8:	27bd0018 	addiu	sp,sp,24

80000cac <put_char_>:
80000cac:	27bdffe8 	addiu	sp,sp,-24
80000cb0:	afbf0014 	sw	ra,20(sp)
80000cb4:	9484005c 	lhu	a0,92(a0)
80000cb8:	0c000b7c 	jal	80002df0 <_put_char>
80000cbc:	00000000 	nop
80000cc0:	8fbf0014 	lw	ra,20(sp)
80000cc4:	00000000 	nop
80000cc8:	03e00008 	jr	ra
80000ccc:	27bd0018 	addiu	sp,sp,24

80000cd0 <put_string_>:
80000cd0:	27bdffe8 	addiu	sp,sp,-24
80000cd4:	afbf0014 	sw	ra,20(sp)
80000cd8:	afb00010 	sw	s0,16(sp)
80000cdc:	8c90005c 	lw	s0,92(a0)
80000ce0:	00000000 	nop
80000ce4:	96040000 	lhu	a0,0(s0)
80000ce8:	00000000 	nop
80000cec:	10800007 	beqz	a0,80000d0c <put_string_+0x3c>
80000cf0:	24020001 	li	v0,1
80000cf4:	0c000b7c 	jal	80002df0 <_put_char>
80000cf8:	26100002 	addiu	s0,s0,2
80000cfc:	96040000 	lhu	a0,0(s0)
80000d00:	00000000 	nop
80000d04:	1480fffb 	bnez	a0,80000cf4 <put_string_+0x24>
80000d08:	24020001 	li	v0,1
80000d0c:	8fbf0014 	lw	ra,20(sp)
80000d10:	8fb00010 	lw	s0,16(sp)
80000d14:	03e00008 	jr	ra
80000d18:	27bd0018 	addiu	sp,sp,24

80000d1c <get_char_>:
80000d1c:	27bdffe8 	addiu	sp,sp,-24
80000d20:	afbf0014 	sw	ra,20(sp)
80000d24:	0c00014f 	jal	8000053c <get_from_keybuf>
80000d28:	00000000 	nop
80000d2c:	8fbf0014 	lw	ra,20(sp)
80000d30:	00000000 	nop
80000d34:	03e00008 	jr	ra
80000d38:	27bd0018 	addiu	sp,sp,24

80000d3c <pwd_>:
80000d3c:	27bdffe8 	addiu	sp,sp,-24
80000d40:	afbf0014 	sw	ra,20(sp)
80000d44:	8c850058 	lw	a1,88(a0)
80000d48:	8c84005c 	lw	a0,92(a0)
80000d4c:	0c0008c8 	jal	80002320 <pwd__>
80000d50:	00000000 	nop
80000d54:	8fbf0014 	lw	ra,20(sp)
80000d58:	00000000 	nop
80000d5c:	03e00008 	jr	ra
80000d60:	27bd0018 	addiu	sp,sp,24

80000d64 <cd_>:
80000d64:	27bdffe8 	addiu	sp,sp,-24
80000d68:	afbf0014 	sw	ra,20(sp)
80000d6c:	8c84005c 	lw	a0,92(a0)
80000d70:	0c0008e7 	jal	8000239c <cd__>
80000d74:	00000000 	nop
80000d78:	8fbf0014 	lw	ra,20(sp)
80000d7c:	00000000 	nop
80000d80:	03e00008 	jr	ra
80000d84:	27bd0018 	addiu	sp,sp,24

80000d88 <crt_file_>:
80000d88:	27bdffe8 	addiu	sp,sp,-24
80000d8c:	afbf0014 	sw	ra,20(sp)
80000d90:	8c84005c 	lw	a0,92(a0)
80000d94:	0c0008f1 	jal	800023c4 <crt_file__>
80000d98:	00000000 	nop
80000d9c:	8fbf0014 	lw	ra,20(sp)
80000da0:	00000000 	nop
80000da4:	03e00008 	jr	ra
80000da8:	27bd0018 	addiu	sp,sp,24

80000dac <del_file_>:
80000dac:	27bdffe8 	addiu	sp,sp,-24
80000db0:	afbf0014 	sw	ra,20(sp)
80000db4:	8c84005c 	lw	a0,92(a0)
80000db8:	0c0009cc 	jal	80002730 <del_file__>
80000dbc:	00000000 	nop
80000dc0:	8fbf0014 	lw	ra,20(sp)
80000dc4:	00000000 	nop
80000dc8:	03e00008 	jr	ra
80000dcc:	27bd0018 	addiu	sp,sp,24

80000dd0 <fopen_>:
80000dd0:	27bdffe8 	addiu	sp,sp,-24
80000dd4:	afbf0014 	sw	ra,20(sp)
80000dd8:	8c84005c 	lw	a0,92(a0)
80000ddc:	0c000a1f 	jal	8000287c <fopen__>
80000de0:	00000000 	nop
80000de4:	8fbf0014 	lw	ra,20(sp)
80000de8:	00000000 	nop
80000dec:	03e00008 	jr	ra
80000df0:	27bd0018 	addiu	sp,sp,24

80000df4 <fclose_>:
80000df4:	27bdffe8 	addiu	sp,sp,-24
80000df8:	afbf0014 	sw	ra,20(sp)
80000dfc:	8c84005c 	lw	a0,92(a0)
80000e00:	0c000a4b 	jal	8000292c <fclose__>
80000e04:	00000000 	nop
80000e08:	8fbf0014 	lw	ra,20(sp)
80000e0c:	00000000 	nop
80000e10:	03e00008 	jr	ra
80000e14:	27bd0018 	addiu	sp,sp,24

80000e18 <fread_>:
80000e18:	27bdffe8 	addiu	sp,sp,-24
80000e1c:	afbf0014 	sw	ra,20(sp)
80000e20:	8c860054 	lw	a2,84(a0)
80000e24:	8c850058 	lw	a1,88(a0)
80000e28:	8c84005c 	lw	a0,92(a0)
80000e2c:	0c000a6c 	jal	800029b0 <fread__>
80000e30:	00000000 	nop
80000e34:	8fbf0014 	lw	ra,20(sp)
80000e38:	00000000 	nop
80000e3c:	03e00008 	jr	ra
80000e40:	27bd0018 	addiu	sp,sp,24

80000e44 <fwrite_>:
80000e44:	27bdffe8 	addiu	sp,sp,-24
80000e48:	afbf0014 	sw	ra,20(sp)
80000e4c:	8c860054 	lw	a2,84(a0)
80000e50:	8c850058 	lw	a1,88(a0)
80000e54:	8c84005c 	lw	a0,92(a0)
80000e58:	0c000a88 	jal	80002a20 <fwrite__>
80000e5c:	00000000 	nop
80000e60:	8fbf0014 	lw	ra,20(sp)
80000e64:	00000000 	nop
80000e68:	03e00008 	jr	ra
80000e6c:	27bd0018 	addiu	sp,sp,24

80000e70 <fseek_>:
80000e70:	27bdffe8 	addiu	sp,sp,-24
80000e74:	afbf0014 	sw	ra,20(sp)
80000e78:	8c860054 	lw	a2,84(a0)
80000e7c:	8c850058 	lw	a1,88(a0)
80000e80:	8c84005c 	lw	a0,92(a0)
80000e84:	0c000aa4 	jal	80002a90 <fseek__>
80000e88:	00000000 	nop
80000e8c:	8fbf0014 	lw	ra,20(sp)
80000e90:	00000000 	nop
80000e94:	03e00008 	jr	ra
80000e98:	27bd0018 	addiu	sp,sp,24

80000e9c <dir_>:
80000e9c:	27bdffe8 	addiu	sp,sp,-24
80000ea0:	afbf0014 	sw	ra,20(sp)
80000ea4:	0c000adc 	jal	80002b70 <dir__>
80000ea8:	00000000 	nop
80000eac:	24020001 	li	v0,1
80000eb0:	8fbf0014 	lw	ra,20(sp)
80000eb4:	00000000 	nop
80000eb8:	03e00008 	jr	ra
80000ebc:	27bd0018 	addiu	sp,sp,24

80000ec0 <feof_>:
80000ec0:	27bdffe8 	addiu	sp,sp,-24
80000ec4:	afbf0014 	sw	ra,20(sp)
80000ec8:	8c84005c 	lw	a0,92(a0)
80000ecc:	0c000ac1 	jal	80002b04 <feof__>
80000ed0:	00000000 	nop
80000ed4:	8fbf0014 	lw	ra,20(sp)
80000ed8:	00000000 	nop
80000edc:	03e00008 	jr	ra
80000ee0:	27bd0018 	addiu	sp,sp,24

80000ee4 <init_syscall>:
80000ee4:	3c028000 	lui	v0,0x8000
80000ee8:	3c038000 	lui	v1,0x8000
80000eec:	24630a18 	addiu	v1,v1,2584
80000ef0:	ac436094 	sw	v1,24724(v0)
80000ef4:	24426094 	addiu	v0,v0,24724
80000ef8:	3c038000 	lui	v1,0x8000
80000efc:	24630a2c 	addiu	v1,v1,2604
80000f00:	ac430004 	sw	v1,4(v0)
80000f04:	3c038000 	lui	v1,0x8000
80000f08:	24630a3c 	addiu	v1,v1,2620
80000f0c:	ac430008 	sw	v1,8(v0)
80000f10:	3c038000 	lui	v1,0x8000
80000f14:	24630a4c 	addiu	v1,v1,2636
80000f18:	ac43000c 	sw	v1,12(v0)
80000f1c:	3c038000 	lui	v1,0x8000
80000f20:	24630a60 	addiu	v1,v1,2656
80000f24:	ac430010 	sw	v1,16(v0)
80000f28:	3c038000 	lui	v1,0x8000
80000f2c:	24630a8c 	addiu	v1,v1,2700
80000f30:	ac430014 	sw	v1,20(v0)
80000f34:	3c038000 	lui	v1,0x8000
80000f38:	24630b00 	addiu	v1,v1,2816
80000f3c:	ac430018 	sw	v1,24(v0)
80000f40:	3c038000 	lui	v1,0x8000
80000f44:	24630c88 	addiu	v1,v1,3208
80000f48:	ac43001c 	sw	v1,28(v0)
80000f4c:	3c038000 	lui	v1,0x8000
80000f50:	24630b10 	addiu	v1,v1,2832
80000f54:	ac430020 	sw	v1,32(v0)
80000f58:	3c038000 	lui	v1,0x8000
80000f5c:	24630b4c 	addiu	v1,v1,2892
80000f60:	ac430024 	sw	v1,36(v0)
80000f64:	3c038000 	lui	v1,0x8000
80000f68:	24630cac 	addiu	v1,v1,3244
80000f6c:	ac430028 	sw	v1,40(v0)
80000f70:	3c038000 	lui	v1,0x8000
80000f74:	24630cd0 	addiu	v1,v1,3280
80000f78:	ac43002c 	sw	v1,44(v0)
80000f7c:	3c038000 	lui	v1,0x8000
80000f80:	24630c00 	addiu	v1,v1,3072
80000f84:	ac430030 	sw	v1,48(v0)
80000f88:	3c038000 	lui	v1,0x8000
80000f8c:	24630d1c 	addiu	v1,v1,3356
80000f90:	ac430034 	sw	v1,52(v0)
80000f94:	3c038000 	lui	v1,0x8000
80000f98:	24630d3c 	addiu	v1,v1,3388
80000f9c:	ac430038 	sw	v1,56(v0)
80000fa0:	3c038000 	lui	v1,0x8000
80000fa4:	24630d64 	addiu	v1,v1,3428
80000fa8:	ac43003c 	sw	v1,60(v0)
80000fac:	3c038000 	lui	v1,0x8000
80000fb0:	24630d88 	addiu	v1,v1,3464
80000fb4:	ac430040 	sw	v1,64(v0)
80000fb8:	3c038000 	lui	v1,0x8000
80000fbc:	24630dac 	addiu	v1,v1,3500
80000fc0:	ac430044 	sw	v1,68(v0)
80000fc4:	3c038000 	lui	v1,0x8000
80000fc8:	24630dd0 	addiu	v1,v1,3536
80000fcc:	ac430048 	sw	v1,72(v0)
80000fd0:	3c038000 	lui	v1,0x8000
80000fd4:	24630df4 	addiu	v1,v1,3572
80000fd8:	ac43004c 	sw	v1,76(v0)
80000fdc:	3c038000 	lui	v1,0x8000
80000fe0:	24630e18 	addiu	v1,v1,3608
80000fe4:	ac430050 	sw	v1,80(v0)
80000fe8:	3c038000 	lui	v1,0x8000
80000fec:	24630e44 	addiu	v1,v1,3652
80000ff0:	ac430054 	sw	v1,84(v0)
80000ff4:	3c038000 	lui	v1,0x8000
80000ff8:	24630e70 	addiu	v1,v1,3696
80000ffc:	ac430058 	sw	v1,88(v0)
80001000:	3c038000 	lui	v1,0x8000
80001004:	24630e9c 	addiu	v1,v1,3740
80001008:	ac43005c 	sw	v1,92(v0)
8000100c:	3c038000 	lui	v1,0x8000
80001010:	24630ec0 	addiu	v1,v1,3776
80001014:	03e00008 	jr	ra
80001018:	ac430060 	sw	v1,96(v0)

8000101c <handle_syscall>:
8000101c:	27bdffe8 	addiu	sp,sp,-24
80001020:	afbf0014 	sw	ra,20(sp)
80001024:	afb00010 	sw	s0,16(sp)
80001028:	8c82006c 	lw	v0,108(a0)
8000102c:	00000000 	nop
80001030:	24420004 	addiu	v0,v0,4
80001034:	ac82006c 	sw	v0,108(a0)
80001038:	8c820060 	lw	v0,96(a0)
8000103c:	00000000 	nop
80001040:	00021080 	sll	v0,v0,0x2
80001044:	3c038000 	lui	v1,0x8000
80001048:	24636094 	addiu	v1,v1,24724
8000104c:	00431021 	addu	v0,v0,v1
80001050:	8c420000 	lw	v0,0(v0)
80001054:	00000000 	nop
80001058:	0040f809 	jalr	v0
8000105c:	00808025 	move	s0,a0
80001060:	ae020068 	sw	v0,104(s0)
80001064:	8fbf0014 	lw	ra,20(sp)
80001068:	8fb00010 	lw	s0,16(sp)
8000106c:	03e00008 	jr	ra
80001070:	27bd0018 	addiu	sp,sp,24

80001074 <handle_interrupt>:
80001074:	27bdffe8 	addiu	sp,sp,-24
80001078:	afbf0014 	sw	ra,20(sp)
8000107c:	8c820070 	lw	v0,112(a0)
80001080:	00000000 	nop
80001084:	30438000 	andi	v1,v0,0x8000
80001088:	14600007 	bnez	v1,800010a8 <handle_interrupt+0x34>
8000108c:	30424000 	andi	v0,v0,0x4000
80001090:	14400009 	bnez	v0,800010b8 <handle_interrupt+0x44>
80001094:	00000000 	nop
80001098:	8fbf0014 	lw	ra,20(sp)
8000109c:	00000000 	nop
800010a0:	03e00008 	jr	ra
800010a4:	27bd0018 	addiu	sp,sp,24
800010a8:	0c000229 	jal	800008a4 <handle_timer>
800010ac:	00000000 	nop
800010b0:	1000fff9 	b	80001098 <handle_interrupt+0x24>
800010b4:	00000000 	nop
800010b8:	0c000163 	jal	8000058c <handle_keyboard>
800010bc:	00000000 	nop
800010c0:	1000fff5 	b	80001098 <handle_interrupt+0x24>
800010c4:	00000000 	nop

800010c8 <handle_exception>:
800010c8:	27bdffe8 	addiu	sp,sp,-24
800010cc:	afbf0014 	sw	ra,20(sp)
800010d0:	8c820070 	lw	v0,112(a0)
800010d4:	00000000 	nop
800010d8:	3042007c 	andi	v0,v0,0x7c
800010dc:	3c038000 	lui	v1,0x8000
800010e0:	24636114 	addiu	v1,v1,24852
800010e4:	00431021 	addu	v0,v0,v1
800010e8:	8c420000 	lw	v0,0(v0)
800010ec:	00000000 	nop
800010f0:	0040f809 	jalr	v0
800010f4:	00000000 	nop
800010f8:	8fbf0014 	lw	ra,20(sp)
800010fc:	00000000 	nop
80001100:	03e00008 	jr	ra
80001104:	27bd0018 	addiu	sp,sp,24

80001108 <init_exc>:
80001108:	3c028000 	lui	v0,0x8000
8000110c:	3c038000 	lui	v1,0x8000
80001110:	24631074 	addiu	v1,v1,4212
80001114:	ac436114 	sw	v1,24852(v0)
80001118:	24426114 	addiu	v0,v0,24852
8000111c:	3c038000 	lui	v1,0x8000
80001120:	2463101c 	addiu	v1,v1,4124
80001124:	03e00008 	jr	ra
80001128:	ac430020 	sw	v1,32(v0)

8000112c <get_file_name>:
8000112c:	00001025 	move	v0,zero
80001130:	00001825 	move	v1,zero
80001134:	24070001 	li	a3,1
80001138:	2408002f 	li	t0,47
8000113c:	240d000b 	li	t5,11
80001140:	240c002e 	li	t4,46
80001144:	240e0008 	li	t6,8
80001148:	248b0008 	addiu	t3,a0,8
8000114c:	10000016 	b	800011a8 <get_file_name+0x7c>
80001150:	240a0020 	li	t2,32
80001154:	8ca60000 	lw	a2,0(a1)
80001158:	00000000 	nop
8000115c:	90c60000 	lbu	a2,0(a2)
80001160:	00000000 	nop
80001164:	10c00021 	beqz	a2,800011ec <get_file_name+0xc0>
80001168:	00000000 	nop
8000116c:	10c8001f 	beq	a2,t0,800011ec <get_file_name+0xc0>
80001170:	00000000 	nop
80001174:	10cc002a 	beq	a2,t4,80001220 <get_file_name+0xf4>
80001178:	00000000 	nop
8000117c:	106e0040 	beq	v1,t6,80001280 <get_file_name+0x154>
80001180:	00834821 	addu	t1,a0,v1
80001184:	a1260000 	sb	a2,0(t1)
80001188:	24630001 	addiu	v1,v1,1
8000118c:	8ca60000 	lw	a2,0(a1)
80001190:	00000000 	nop
80001194:	24c60001 	addiu	a2,a2,1
80001198:	aca60000 	sw	a2,0(a1)
8000119c:	2c66000c 	sltiu	a2,v1,12
800011a0:	10c00039 	beqz	a2,80001288 <get_file_name+0x15c>
800011a4:	00000000 	nop
800011a8:	1040ffea 	beqz	v0,80001154 <get_file_name+0x28>
800011ac:	00000000 	nop
800011b0:	1447fff6 	bne	v0,a3,8000118c <get_file_name+0x60>
800011b4:	00000000 	nop
800011b8:	8ca60000 	lw	a2,0(a1)
800011bc:	00000000 	nop
800011c0:	90c60000 	lbu	a2,0(a2)
800011c4:	00000000 	nop
800011c8:	10c00024 	beqz	a2,8000125c <get_file_name+0x130>
800011cc:	00000000 	nop
800011d0:	10c80022 	beq	a2,t0,8000125c <get_file_name+0x130>
800011d4:	00000000 	nop
800011d8:	106d002d 	beq	v1,t5,80001290 <get_file_name+0x164>
800011dc:	00834821 	addu	t1,a0,v1
800011e0:	a1260000 	sb	a2,0(t1)
800011e4:	1000ffe9 	b	8000118c <get_file_name+0x60>
800011e8:	24630001 	addiu	v1,v1,1
800011ec:	2c62000b 	sltiu	v0,v1,11
800011f0:	10400009 	beqz	v0,80001218 <get_file_name+0xec>
800011f4:	00831821 	addu	v1,a0,v1
800011f8:	2484000b 	addiu	a0,a0,11
800011fc:	24020020 	li	v0,32
80001200:	a0620000 	sb	v0,0(v1)
80001204:	24630001 	addiu	v1,v1,1
80001208:	1483fffd 	bne	a0,v1,80001200 <get_file_name+0xd4>
8000120c:	00000000 	nop
80001210:	03e00008 	jr	ra
80001214:	24020001 	li	v0,1
80001218:	03e00008 	jr	ra
8000121c:	24020001 	li	v0,1
80001220:	2c620008 	sltiu	v0,v1,8
80001224:	1040ffd9 	beqz	v0,8000118c <get_file_name+0x60>
80001228:	00e01025 	move	v0,a3
8000122c:	00831821 	addu	v1,a0,v1
80001230:	a06a0000 	sb	t2,0(v1)
80001234:	24630001 	addiu	v1,v1,1
80001238:	146bfffd 	bne	v1,t3,80001230 <get_file_name+0x104>
8000123c:	00000000 	nop
80001240:	8ca20000 	lw	v0,0(a1)
80001244:	00000000 	nop
80001248:	24420001 	addiu	v0,v0,1
8000124c:	aca20000 	sw	v0,0(a1)
80001250:	01c01825 	move	v1,t6
80001254:	1000ffd4 	b	800011a8 <get_file_name+0x7c>
80001258:	00e01025 	move	v0,a3
8000125c:	2c65000b 	sltiu	a1,v1,11
80001260:	10a00007 	beqz	a1,80001280 <get_file_name+0x154>
80001264:	00831821 	addu	v1,a0,v1
80001268:	2484000b 	addiu	a0,a0,11
8000126c:	24050020 	li	a1,32
80001270:	a0650000 	sb	a1,0(v1)
80001274:	24630001 	addiu	v1,v1,1
80001278:	1464fffd 	bne	v1,a0,80001270 <get_file_name+0x144>
8000127c:	00000000 	nop
80001280:	03e00008 	jr	ra
80001284:	00000000 	nop
80001288:	03e00008 	jr	ra
8000128c:	00001025 	move	v0,zero
80001290:	03e00008 	jr	ra
80001294:	00001025 	move	v0,zero

80001298 <do_open>:
80001298:	27bdffd8 	addiu	sp,sp,-40
8000129c:	afbf0024 	sw	ra,36(sp)
800012a0:	afb40020 	sw	s4,32(sp)
800012a4:	afb3001c 	sw	s3,28(sp)
800012a8:	afb20018 	sw	s2,24(sp)
800012ac:	afb10014 	sw	s1,20(sp)
800012b0:	afb00010 	sw	s0,16(sp)
800012b4:	00808025 	move	s0,a0
800012b8:	00a0a025 	move	s4,a1
800012bc:	00c09825 	move	s3,a2
800012c0:	00e09025 	move	s2,a3
800012c4:	24d10004 	addiu	s1,a2,4
800012c8:	02278821 	addu	s1,s1,a3
800012cc:	9222000b 	lbu	v0,11(s1)
800012d0:	00000000 	nop
800012d4:	a0820000 	sb	v0,0(a0)
800012d8:	9622001a 	lhu	v0,26(s1)
800012dc:	00000000 	nop
800012e0:	2442fffe 	addiu	v0,v0,-2
800012e4:	a4820002 	sh	v0,2(a0)
800012e8:	8e22001c 	lw	v0,28(s1)
800012ec:	00000000 	nop
800012f0:	ac820004 	sw	v0,4(a0)
800012f4:	24060008 	li	a2,8
800012f8:	0c000ca8 	jal	800032a0 <kmemcpy>
800012fc:	24840008 	addiu	a0,a0,8
80001300:	24060003 	li	a2,3
80001304:	26850008 	addiu	a1,s4,8
80001308:	0c000ca8 	jal	800032a0 <kmemcpy>
8000130c:	26040010 	addiu	a0,s0,16
80001310:	9622001a 	lhu	v0,26(s1)
80001314:	00000000 	nop
80001318:	ae020018 	sw	v0,24(s0)
8000131c:	ae00001c 	sw	zero,28(s0)
80001320:	ae000020 	sw	zero,32(s0)
80001324:	96620002 	lhu	v0,2(s3)
80001328:	00000000 	nop
8000132c:	a6020014 	sh	v0,20(s0)
80001330:	a6120016 	sh	s2,22(s0)
80001334:	8fbf0024 	lw	ra,36(sp)
80001338:	8fb40020 	lw	s4,32(sp)
8000133c:	8fb3001c 	lw	s3,28(sp)
80001340:	8fb20018 	lw	s2,24(sp)
80001344:	8fb10014 	lw	s1,20(sp)
80001348:	8fb00010 	lw	s0,16(sp)
8000134c:	03e00008 	jr	ra
80001350:	27bd0028 	addiu	sp,sp,40

80001354 <read_>:
80001354:	27bdfff8 	addiu	sp,sp,-8
80001358:	00051400 	sll	v0,a1,0x10
8000135c:	34420020 	ori	v0,v0,0x20
80001360:	afa20000 	sw	v0,0(sp)
80001364:	8fa30000 	lw	v1,0(sp)
80001368:	3c02b000 	lui	v0,0xb000
8000136c:	ac430018 	sw	v1,24(v0)
80001370:	3c03b000 	lui	v1,0xb000
80001374:	8c620018 	lw	v0,24(v1)
80001378:	00000000 	nop
8000137c:	30420040 	andi	v0,v0,0x40
80001380:	1040fffc 	beqz	v0,80001374 <read_+0x20>
80001384:	3c02b002 	lui	v0,0xb002
80001388:	3c05b002 	lui	a1,0xb002
8000138c:	24a50200 	addiu	a1,a1,512
80001390:	8c430000 	lw	v1,0(v0)
80001394:	00000000 	nop
80001398:	ac830000 	sw	v1,0(a0)
8000139c:	24420004 	addiu	v0,v0,4
800013a0:	1445fffb 	bne	v0,a1,80001390 <read_+0x3c>
800013a4:	24840004 	addiu	a0,a0,4
800013a8:	03e00008 	jr	ra
800013ac:	27bd0008 	addiu	sp,sp,8

800013b0 <write_>:
800013b0:	27bdfff8 	addiu	sp,sp,-8
800013b4:	3c02b002 	lui	v0,0xb002
800013b8:	3c06b002 	lui	a2,0xb002
800013bc:	24c60200 	addiu	a2,a2,512
800013c0:	8c830000 	lw	v1,0(a0)
800013c4:	00000000 	nop
800013c8:	ac430000 	sw	v1,0(v0)
800013cc:	24420004 	addiu	v0,v0,4
800013d0:	1446fffb 	bne	v0,a2,800013c0 <write_+0x10>
800013d4:	24840004 	addiu	a0,a0,4
800013d8:	00051400 	sll	v0,a1,0x10
800013dc:	34420030 	ori	v0,v0,0x30
800013e0:	afa20000 	sw	v0,0(sp)
800013e4:	8fa30000 	lw	v1,0(sp)
800013e8:	3c02b000 	lui	v0,0xb000
800013ec:	ac430018 	sw	v1,24(v0)
800013f0:	3c03b000 	lui	v1,0xb000
800013f4:	8c620018 	lw	v0,24(v1)
800013f8:	00000000 	nop
800013fc:	30420040 	andi	v0,v0,0x40
80001400:	1040fffc 	beqz	v0,800013f4 <write_+0x44>
80001404:	00000000 	nop
80001408:	03e00008 	jr	ra
8000140c:	27bd0008 	addiu	sp,sp,8

80001410 <write_buffer>:
80001410:	3c028000 	lui	v0,0x8000
80001414:	90426388 	lbu	v0,25480(v0)
80001418:	00000000 	nop
8000141c:	14400003 	bnez	v0,8000142c <write_buffer+0x1c>
80001420:	3c048000 	lui	a0,0x8000
80001424:	03e00008 	jr	ra
80001428:	00000000 	nop
8000142c:	27bdffe8 	addiu	sp,sp,-24
80001430:	afbf0014 	sw	ra,20(sp)
80001434:	afb00010 	sw	s0,16(sp)
80001438:	3c108000 	lui	s0,0x8000
8000143c:	26026388 	addiu	v0,s0,25480
80001440:	94450002 	lhu	a1,2(v0)
80001444:	0c0004ec 	jal	800013b0 <write_>
80001448:	2484638c 	addiu	a0,a0,25484
8000144c:	a2006388 	sb	zero,25480(s0)
80001450:	8fbf0014 	lw	ra,20(sp)
80001454:	8fb00010 	lw	s0,16(sp)
80001458:	03e00008 	jr	ra
8000145c:	27bd0018 	addiu	sp,sp,24

80001460 <read_disk>:
80001460:	27bdffe8 	addiu	sp,sp,-24
80001464:	afbf0014 	sw	ra,20(sp)
80001468:	afb00010 	sw	s0,16(sp)
8000146c:	0c000504 	jal	80001410 <write_buffer>
80001470:	00808025 	move	s0,a0
80001474:	3205ffff 	andi	a1,s0,0xffff
80001478:	3c108000 	lui	s0,0x8000
8000147c:	26106388 	addiu	s0,s0,25480
80001480:	a6050002 	sh	a1,2(s0)
80001484:	3c048000 	lui	a0,0x8000
80001488:	0c0004d5 	jal	80001354 <read_>
8000148c:	2484638c 	addiu	a0,a0,25484
80001490:	02001025 	move	v0,s0
80001494:	8fbf0014 	lw	ra,20(sp)
80001498:	8fb00010 	lw	s0,16(sp)
8000149c:	03e00008 	jr	ra
800014a0:	27bd0018 	addiu	sp,sp,24

800014a4 <get_next_sect>:
800014a4:	27bdffe0 	addiu	sp,sp,-32
800014a8:	afbf001c 	sw	ra,28(sp)
800014ac:	afb10018 	sw	s1,24(sp)
800014b0:	afb00014 	sw	s0,20(sp)
800014b4:	00808025 	move	s0,a0
800014b8:	8c820018 	lw	v0,24(a0)
800014bc:	00000000 	nop
800014c0:	00021202 	srl	v0,v0,0x8
800014c4:	3c038000 	lui	v1,0x8000
800014c8:	8c646374 	lw	a0,25460(v1)
800014cc:	0c000518 	jal	80001460 <read_disk>
800014d0:	00442021 	addu	a0,v0,a0
800014d4:	8e050018 	lw	a1,24(s0)
800014d8:	00000000 	nop
800014dc:	00051840 	sll	v1,a1,0x1
800014e0:	306301fe 	andi	v1,v1,0x1fe
800014e4:	00431021 	addu	v0,v0,v1
800014e8:	94510004 	lhu	s1,4(v0)
800014ec:	00000000 	nop
800014f0:	2622ffff 	addiu	v0,s1,-1
800014f4:	3042ffff 	andi	v0,v0,0xffff
800014f8:	3403fff7 	li	v1,0xfff7
800014fc:	0043102b 	sltu	v0,v0,v1
80001500:	1440000c 	bnez	v0,80001534 <get_next_sect+0x90>
80001504:	3c028000 	lui	v0,0x8000
80001508:	8c446384 	lw	a0,25476(v0)
8000150c:	00000000 	nop
80001510:	2484fffe 	addiu	a0,a0,-2
80001514:	0c000518 	jal	80001460 <read_disk>
80001518:	00852021 	addu	a0,a0,a1
8000151c:	00001025 	move	v0,zero
80001520:	8fbf001c 	lw	ra,28(sp)
80001524:	8fb10018 	lw	s1,24(sp)
80001528:	8fb00014 	lw	s0,20(sp)
8000152c:	03e00008 	jr	ra
80001530:	27bd0020 	addiu	sp,sp,32
80001534:	8c446384 	lw	a0,25476(v0)
80001538:	00000000 	nop
8000153c:	2484fffe 	addiu	a0,a0,-2
80001540:	0c000518 	jal	80001460 <read_disk>
80001544:	00912021 	addu	a0,a0,s1
80001548:	ae020024 	sw	v0,36(s0)
8000154c:	ae110018 	sw	s1,24(s0)
80001550:	8e02001c 	lw	v0,28(s0)
80001554:	00000000 	nop
80001558:	24420200 	addiu	v0,v0,512
8000155c:	ae02001c 	sw	v0,28(s0)
80001560:	1000ffef 	b	80001520 <get_next_sect+0x7c>
80001564:	24020001 	li	v0,1

80001568 <seek_sect>:
80001568:	94850002 	lhu	a1,2(a0)
8000156c:	3402fffe 	li	v0,0xfffe
80001570:	10a20033 	beq	a1,v0,80001640 <seek_sect+0xd8>
80001574:	00000000 	nop
80001578:	27bdffe8 	addiu	sp,sp,-24
8000157c:	afbf0014 	sw	ra,20(sp)
80001580:	afb00010 	sw	s0,16(sp)
80001584:	00808025 	move	s0,a0
80001588:	8c820020 	lw	v0,32(a0)
8000158c:	8c83001c 	lw	v1,28(a0)
80001590:	00000000 	nop
80001594:	0043202b 	sltu	a0,v0,v1
80001598:	1480000d 	bnez	a0,800015d0 <seek_sect+0x68>
8000159c:	24630200 	addiu	v1,v1,512
800015a0:	0043102b 	sltu	v0,v0,v1
800015a4:	10400019 	beqz	v0,8000160c <seek_sect+0xa4>
800015a8:	3c028000 	lui	v0,0x8000
800015ac:	8c426384 	lw	v0,25476(v0)
800015b0:	00000000 	nop
800015b4:	2442fffe 	addiu	v0,v0,-2
800015b8:	8e040018 	lw	a0,24(s0)
800015bc:	0c000518 	jal	80001460 <read_disk>
800015c0:	00442021 	addu	a0,v0,a0
800015c4:	ae020024 	sw	v0,36(s0)
800015c8:	10000019 	b	80001630 <seek_sect+0xc8>
800015cc:	24020001 	li	v0,1
800015d0:	3c028000 	lui	v0,0x8000
800015d4:	8c446384 	lw	a0,25476(v0)
800015d8:	0c000518 	jal	80001460 <read_disk>
800015dc:	00a42021 	addu	a0,a1,a0
800015e0:	ae020024 	sw	v0,36(s0)
800015e4:	ae00001c 	sw	zero,28(s0)
800015e8:	96020002 	lhu	v0,2(s0)
800015ec:	00000000 	nop
800015f0:	24420002 	addiu	v0,v0,2
800015f4:	10000005 	b	8000160c <seek_sect+0xa4>
800015f8:	ae020018 	sw	v0,24(s0)
800015fc:	0c000529 	jal	800014a4 <get_next_sect>
80001600:	02002025 	move	a0,s0
80001604:	1040000a 	beqz	v0,80001630 <seek_sect+0xc8>
80001608:	00000000 	nop
8000160c:	8e020020 	lw	v0,32(s0)
80001610:	8e03001c 	lw	v1,28(s0)
80001614:	00000000 	nop
80001618:	0043202b 	sltu	a0,v0,v1
8000161c:	1480fff7 	bnez	a0,800015fc <seek_sect+0x94>
80001620:	24630200 	addiu	v1,v1,512
80001624:	0043102b 	sltu	v0,v0,v1
80001628:	1040fff4 	beqz	v0,800015fc <seek_sect+0x94>
8000162c:	24020001 	li	v0,1
80001630:	8fbf0014 	lw	ra,20(sp)
80001634:	8fb00010 	lw	s0,16(sp)
80001638:	03e00008 	jr	ra
8000163c:	27bd0018 	addiu	sp,sp,24
80001640:	03e00008 	jr	ra
80001644:	00001025 	move	v0,zero

80001648 <dget_next_sect>:
80001648:	27bdffe8 	addiu	sp,sp,-24
8000164c:	afbf0014 	sw	ra,20(sp)
80001650:	afb00010 	sw	s0,16(sp)
80001654:	90820000 	lbu	v0,0(a0)
80001658:	24030001 	li	v1,1
8000165c:	1043000c 	beq	v0,v1,80001690 <dget_next_sect+0x48>
80001660:	00808025 	move	s0,a0
80001664:	14400006 	bnez	v0,80001680 <dget_next_sect+0x38>
80001668:	00001025 	move	v0,zero
8000166c:	0c000529 	jal	800014a4 <get_next_sect>
80001670:	24840004 	addiu	a0,a0,4
80001674:	10400002 	beqz	v0,80001680 <dget_next_sect+0x38>
80001678:	00001025 	move	v0,zero
8000167c:	8e020028 	lw	v0,40(s0)
80001680:	8fbf0014 	lw	ra,20(sp)
80001684:	8fb00010 	lw	s0,16(sp)
80001688:	03e00008 	jr	ra
8000168c:	27bd0018 	addiu	sp,sp,24
80001690:	94840002 	lhu	a0,2(a0)
80001694:	3c028000 	lui	v0,0x8000
80001698:	8c426380 	lw	v0,25472(v0)
8000169c:	00000000 	nop
800016a0:	10820007 	beq	a0,v0,800016c0 <dget_next_sect+0x78>
800016a4:	00000000 	nop
800016a8:	24840001 	addiu	a0,a0,1
800016ac:	3084ffff 	andi	a0,a0,0xffff
800016b0:	0c000518 	jal	80001460 <read_disk>
800016b4:	a6040002 	sh	a0,2(s0)
800016b8:	1000fff1 	b	80001680 <dget_next_sect+0x38>
800016bc:	00000000 	nop
800016c0:	1000ffef 	b	80001680 <dget_next_sect+0x38>
800016c4:	00001025 	move	v0,zero
800016c8:	1000ffed 	b	80001680 <dget_next_sect+0x38>
800016cc:	00001025 	move	v0,zero

800016d0 <seek_file>:
800016d0:	10c0000a 	beqz	a2,800016fc <seek_file+0x2c>
800016d4:	24020001 	li	v0,1
800016d8:	10c20005 	beq	a2,v0,800016f0 <seek_file+0x20>
800016dc:	24020002 	li	v0,2
800016e0:	10c20010 	beq	a2,v0,80001724 <seek_file+0x54>
800016e4:	00001025 	move	v0,zero
800016e8:	03e00008 	jr	ra
800016ec:	00000000 	nop
800016f0:	8c820020 	lw	v0,32(a0)
800016f4:	00000000 	nop
800016f8:	00a22821 	addu	a1,a1,v0
800016fc:	04a0000c 	bltz	a1,80001730 <seek_file+0x60>
80001700:	00000000 	nop
80001704:	8c820004 	lw	v0,4(a0)
80001708:	00000000 	nop
8000170c:	00a2102b 	sltu	v0,a1,v0
80001710:	10400009 	beqz	v0,80001738 <seek_file+0x68>
80001714:	00000000 	nop
80001718:	ac850020 	sw	a1,32(a0)
8000171c:	03e00008 	jr	ra
80001720:	24020001 	li	v0,1
80001724:	8c820004 	lw	v0,4(a0)
80001728:	1000fff4 	b	800016fc <seek_file+0x2c>
8000172c:	00a22821 	addu	a1,a1,v0
80001730:	03e00008 	jr	ra
80001734:	00001025 	move	v0,zero
80001738:	03e00008 	jr	ra
8000173c:	00001025 	move	v0,zero

80001740 <dget_first_sect>:
80001740:	27bdffe0 	addiu	sp,sp,-32
80001744:	afbf001c 	sw	ra,28(sp)
80001748:	afb10018 	sw	s1,24(sp)
8000174c:	afb00014 	sw	s0,20(sp)
80001750:	90820000 	lbu	v0,0(a0)
80001754:	24030001 	li	v1,1
80001758:	10430011 	beq	v0,v1,800017a0 <dget_first_sect+0x60>
8000175c:	00808025 	move	s0,a0
80001760:	14400019 	bnez	v0,800017c8 <dget_first_sect+0x88>
80001764:	24910004 	addiu	s1,a0,4
80001768:	00003025 	move	a2,zero
8000176c:	00002825 	move	a1,zero
80001770:	0c0005b4 	jal	800016d0 <seek_file>
80001774:	02202025 	move	a0,s1
80001778:	0c00055a 	jal	80001568 <seek_sect>
8000177c:	02202025 	move	a0,s1
80001780:	10400002 	beqz	v0,8000178c <dget_first_sect+0x4c>
80001784:	00001025 	move	v0,zero
80001788:	8e020028 	lw	v0,40(s0)
8000178c:	8fbf001c 	lw	ra,28(sp)
80001790:	8fb10018 	lw	s1,24(sp)
80001794:	8fb00014 	lw	s0,20(sp)
80001798:	03e00008 	jr	ra
8000179c:	27bd0020 	addiu	sp,sp,32
800017a0:	3c028000 	lui	v0,0x8000
800017a4:	2442636c 	addiu	v0,v0,25452
800017a8:	8c430010 	lw	v1,16(v0)
800017ac:	00000000 	nop
800017b0:	a4830002 	sh	v1,2(a0)
800017b4:	8c440010 	lw	a0,16(v0)
800017b8:	0c000518 	jal	80001460 <read_disk>
800017bc:	00000000 	nop
800017c0:	1000fff2 	b	8000178c <dget_first_sect+0x4c>
800017c4:	00000000 	nop
800017c8:	1000fff0 	b	8000178c <dget_first_sect+0x4c>
800017cc:	00001025 	move	v0,zero

800017d0 <do_cd>:
800017d0:	27bdfe90 	addiu	sp,sp,-368
800017d4:	afbf016c 	sw	ra,364(sp)
800017d8:	afb60168 	sw	s6,360(sp)
800017dc:	afb50164 	sw	s5,356(sp)
800017e0:	afb40160 	sw	s4,352(sp)
800017e4:	afb3015c 	sw	s3,348(sp)
800017e8:	afb20158 	sw	s2,344(sp)
800017ec:	afb10154 	sw	s1,340(sp)
800017f0:	afb00150 	sw	s0,336(sp)
800017f4:	0080a025 	move	s4,a0
800017f8:	afa50174 	sw	a1,372(sp)
800017fc:	24060003 	li	a2,3
80001800:	3c048000 	lui	a0,0x8000
80001804:	0c000c74 	jal	800031d0 <kstrcmp_char>
80001808:	24846194 	addiu	a0,a0,24980
8000180c:	10400010 	beqz	v0,80001850 <do_cd+0x80>
80001810:	02801025 	move	v0,s4
80001814:	27a30010 	addiu	v1,sp,16
80001818:	26840130 	addiu	a0,s4,304
8000181c:	8c480000 	lw	t0,0(v0)
80001820:	8c470004 	lw	a3,4(v0)
80001824:	8c460008 	lw	a2,8(v0)
80001828:	8c45000c 	lw	a1,12(v0)
8000182c:	ac680000 	sw	t0,0(v1)
80001830:	ac670004 	sw	a3,4(v1)
80001834:	ac660008 	sw	a2,8(v1)
80001838:	ac65000c 	sw	a1,12(v1)
8000183c:	24420010 	addiu	v0,v0,16
80001840:	1444fff6 	bne	v0,a0,8000181c <do_cd+0x4c>
80001844:	24630010 	addiu	v1,v1,16
80001848:	10000013 	b	80001898 <do_cd+0xc8>
8000184c:	24120200 	li	s2,512
80001850:	24020001 	li	v0,1
80001854:	a3a20010 	sb	v0,16(sp)
80001858:	3c028000 	lui	v0,0x8000
8000185c:	8c42637c 	lw	v0,25468(v0)
80001860:	00000000 	nop
80001864:	a7a20012 	sh	v0,18(sp)
80001868:	24060003 	li	a2,3
8000186c:	3c058000 	lui	a1,0x8000
80001870:	24a56194 	addiu	a1,a1,24980
80001874:	0c000ca8 	jal	800032a0 <kmemcpy>
80001878:	27a4003c 	addiu	a0,sp,60
8000187c:	24020003 	li	v0,3
80001880:	a3a2013c 	sb	v0,316(sp)
80001884:	8fa20174 	lw	v0,372(sp)
80001888:	00000000 	nop
8000188c:	24420003 	addiu	v0,v0,3
80001890:	afa20174 	sw	v0,372(sp)
80001894:	24120200 	li	s2,512
80001898:	3c138000 	lui	s3,0x8000
8000189c:	1000008f 	b	80001adc <do_cd+0x30c>
800018a0:	2673636c 	addiu	s3,s3,25452
800018a4:	26100002 	addiu	s0,s0,2
800018a8:	1000008c 	b	80001adc <do_cd+0x30c>
800018ac:	afb00174 	sw	s0,372(sp)
800018b0:	100000a7 	b	80001b50 <do_cd+0x380>
800018b4:	00008825 	move	s1,zero
800018b8:	26100002 	addiu	s0,s0,2
800018bc:	afb00174 	sw	s0,372(sp)
800018c0:	93a3013c 	lbu	v1,316(sp)
800018c4:	00000000 	nop
800018c8:	2462ffff 	addiu	v0,v1,-1
800018cc:	304200ff 	andi	v0,v0,0xff
800018d0:	a3a2013c 	sb	v0,316(sp)
800018d4:	03a22021 	addu	a0,sp,v0
800018d8:	9085003b 	lbu	a1,59(a0)
800018dc:	2404002f 	li	a0,47
800018e0:	10a4000e 	beq	a1,a0,8000191c <do_cd+0x14c>
800018e4:	00000000 	nop
800018e8:	2462fffe 	addiu	v0,v1,-2
800018ec:	304200ff 	andi	v0,v0,0xff
800018f0:	10000002 	b	800018fc <do_cd+0x12c>
800018f4:	2405002f 	li	a1,47
800018f8:	00601025 	move	v0,v1
800018fc:	2443ffff 	addiu	v1,v0,-1
80001900:	27a40010 	addiu	a0,sp,16
80001904:	00822021 	addu	a0,a0,v0
80001908:	9084002b 	lbu	a0,43(a0)
8000190c:	00000000 	nop
80001910:	1485fff9 	bne	a0,a1,800018f8 <do_cd+0x128>
80001914:	306300ff 	andi	v1,v1,0xff
80001918:	a3a2013c 	sb	v0,316(sp)
8000191c:	24030003 	li	v1,3
80001920:	1443001b 	bne	v0,v1,80001990 <do_cd+0x1c0>
80001924:	2402002e 	li	v0,46
80001928:	24020001 	li	v0,1
8000192c:	a3a20010 	sb	v0,16(sp)
80001930:	8e620010 	lw	v0,16(s3)
80001934:	00000000 	nop
80001938:	a7a20012 	sh	v0,18(sp)
8000193c:	8fa20174 	lw	v0,372(sp)
80001940:	00000000 	nop
80001944:	90420000 	lbu	v0,0(v0)
80001948:	00000000 	nop
8000194c:	14400063 	bnez	v0,80001adc <do_cd+0x30c>
80001950:	00000000 	nop
80001954:	27a20010 	addiu	v0,sp,16
80001958:	27a30140 	addiu	v1,sp,320
8000195c:	8c470000 	lw	a3,0(v0)
80001960:	8c460004 	lw	a2,4(v0)
80001964:	8c450008 	lw	a1,8(v0)
80001968:	8c44000c 	lw	a0,12(v0)
8000196c:	ae870000 	sw	a3,0(s4)
80001970:	ae860004 	sw	a2,4(s4)
80001974:	ae850008 	sw	a1,8(s4)
80001978:	ae84000c 	sw	a0,12(s4)
8000197c:	24420010 	addiu	v0,v0,16
80001980:	1443fff6 	bne	v0,v1,8000195c <do_cd+0x18c>
80001984:	26940010 	addiu	s4,s4,16
80001988:	10000071 	b	80001b50 <do_cd+0x380>
8000198c:	24110001 	li	s1,1
80001990:	a3a20140 	sb	v0,320(sp)
80001994:	a3a20141 	sb	v0,321(sp)
80001998:	27a20142 	addiu	v0,sp,322
8000199c:	27a4014b 	addiu	a0,sp,331
800019a0:	24030020 	li	v1,32
800019a4:	a0430000 	sb	v1,0(v0)
800019a8:	24420001 	addiu	v0,v0,1
800019ac:	1444fffd 	bne	v0,a0,800019a4 <do_cd+0x1d4>
800019b0:	00000000 	nop
800019b4:	10000029 	b	80001a5c <do_cd+0x28c>
800019b8:	00000000 	nop
800019bc:	0c00044b 	jal	8000112c <get_file_name>
800019c0:	27a40140 	addiu	a0,sp,320
800019c4:	10400062 	beqz	v0,80001b50 <do_cd+0x380>
800019c8:	00408825 	move	s1,v0
800019cc:	93a4013c 	lbu	a0,316(sp)
800019d0:	8fa60174 	lw	a2,372(sp)
800019d4:	00000000 	nop
800019d8:	00d03023 	subu	a2,a2,s0
800019dc:	02002825 	move	a1,s0
800019e0:	27a2003c 	addiu	v0,sp,60
800019e4:	0c000ca8 	jal	800032a0 <kmemcpy>
800019e8:	00442021 	addu	a0,v0,a0
800019ec:	8fa20174 	lw	v0,372(sp)
800019f0:	00000000 	nop
800019f4:	00501823 	subu	v1,v0,s0
800019f8:	93b0013c 	lbu	s0,316(sp)
800019fc:	00000000 	nop
80001a00:	00701821 	addu	v1,v1,s0
80001a04:	306300ff 	andi	v1,v1,0xff
80001a08:	a3a3013c 	sb	v1,316(sp)
80001a0c:	03a32021 	addu	a0,sp,v1
80001a10:	9085003b 	lbu	a1,59(a0)
80001a14:	2404002f 	li	a0,47
80001a18:	10a40005 	beq	a1,a0,80001a30 <do_cd+0x260>
80001a1c:	03a32021 	addu	a0,sp,v1
80001a20:	2405002f 	li	a1,47
80001a24:	a085003c 	sb	a1,60(a0)
80001a28:	24630001 	addiu	v1,v1,1
80001a2c:	a3a3013c 	sb	v1,316(sp)
80001a30:	90440000 	lbu	a0,0(v0)
80001a34:	2403002f 	li	v1,47
80001a38:	14830008 	bne	a0,v1,80001a5c <do_cd+0x28c>
80001a3c:	24420001 	addiu	v0,v0,1
80001a40:	2404002f 	li	a0,47
80001a44:	afa20174 	sw	v0,372(sp)
80001a48:	24420001 	addiu	v0,v0,1
80001a4c:	9043ffff 	lbu	v1,-1(v0)
80001a50:	00000000 	nop
80001a54:	1064fffb 	beq	v1,a0,80001a44 <do_cd+0x274>
80001a58:	00000000 	nop
80001a5c:	0c0005d0 	jal	80001740 <dget_first_sect>
80001a60:	27a40010 	addiu	a0,sp,16
80001a64:	10400039 	beqz	v0,80001b4c <do_cd+0x37c>
80001a68:	0040b025 	move	s6,v0
80001a6c:	26d50004 	addiu	s5,s6,4
80001a70:	00008025 	move	s0,zero
80001a74:	2406000b 	li	a2,11
80001a78:	27a50140 	addiu	a1,sp,320
80001a7c:	0c000c74 	jal	800031d0 <kstrcmp_char>
80001a80:	02b02021 	addu	a0,s5,s0
80001a84:	1040000a 	beqz	v0,80001ab0 <do_cd+0x2e0>
80001a88:	00408825 	move	s1,v0
80001a8c:	26100020 	addiu	s0,s0,32
80001a90:	1612fff9 	bne	s0,s2,80001a78 <do_cd+0x2a8>
80001a94:	2406000b 	li	a2,11
80001a98:	0c000592 	jal	80001648 <dget_next_sect>
80001a9c:	27a40010 	addiu	a0,sp,16
80001aa0:	1440fff2 	bnez	v0,80001a6c <do_cd+0x29c>
80001aa4:	0040b025 	move	s6,v0
80001aa8:	10000029 	b	80001b50 <do_cd+0x380>
80001aac:	00008825 	move	s1,zero
80001ab0:	02003825 	move	a3,s0
80001ab4:	02c03025 	move	a2,s6
80001ab8:	27a50140 	addiu	a1,sp,320
80001abc:	0c0004a6 	jal	80001298 <do_open>
80001ac0:	27a40014 	addiu	a0,sp,20
80001ac4:	93a20014 	lbu	v0,20(sp)
80001ac8:	00000000 	nop
80001acc:	30420010 	andi	v0,v0,0x10
80001ad0:	10400020 	beqz	v0,80001b54 <do_cd+0x384>
80001ad4:	02201025 	move	v0,s1
80001ad8:	a3a00010 	sb	zero,16(sp)
80001adc:	8fb00174 	lw	s0,372(sp)
80001ae0:	00000000 	nop
80001ae4:	92020000 	lbu	v0,0(s0)
80001ae8:	00000000 	nop
80001aec:	1040ff99 	beqz	v0,80001954 <do_cd+0x184>
80001af0:	2403002e 	li	v1,46
80001af4:	1443ffb1 	bne	v0,v1,800019bc <do_cd+0x1ec>
80001af8:	27a50174 	addiu	a1,sp,372
80001afc:	92020001 	lbu	v0,1(s0)
80001b00:	00000000 	nop
80001b04:	1040000d 	beqz	v0,80001b3c <do_cd+0x36c>
80001b08:	2403002f 	li	v1,47
80001b0c:	1043ff65 	beq	v0,v1,800018a4 <do_cd+0xd4>
80001b10:	2403002e 	li	v1,46
80001b14:	1443000b 	bne	v0,v1,80001b44 <do_cd+0x374>
80001b18:	00000000 	nop
80001b1c:	92020002 	lbu	v0,2(s0)
80001b20:	00000000 	nop
80001b24:	1040ff64 	beqz	v0,800018b8 <do_cd+0xe8>
80001b28:	2403002f 	li	v1,47
80001b2c:	1443ff60 	bne	v0,v1,800018b0 <do_cd+0xe0>
80001b30:	26100003 	addiu	s0,s0,3
80001b34:	1000ff62 	b	800018c0 <do_cd+0xf0>
80001b38:	afb00174 	sw	s0,372(sp)
80001b3c:	10000004 	b	80001b50 <do_cd+0x380>
80001b40:	00008825 	move	s1,zero
80001b44:	10000002 	b	80001b50 <do_cd+0x380>
80001b48:	00008825 	move	s1,zero
80001b4c:	00008825 	move	s1,zero
80001b50:	02201025 	move	v0,s1
80001b54:	8fbf016c 	lw	ra,364(sp)
80001b58:	8fb60168 	lw	s6,360(sp)
80001b5c:	8fb50164 	lw	s5,356(sp)
80001b60:	8fb40160 	lw	s4,352(sp)
80001b64:	8fb3015c 	lw	s3,348(sp)
80001b68:	8fb20158 	lw	s2,344(sp)
80001b6c:	8fb10154 	lw	s1,340(sp)
80001b70:	8fb00150 	lw	s0,336(sp)
80001b74:	03e00008 	jr	ra
80001b78:	27bd0170 	addiu	sp,sp,368

80001b7c <open_file>:
80001b7c:	27bdfe98 	addiu	sp,sp,-360
80001b80:	afbf0164 	sw	ra,356(sp)
80001b84:	afb40160 	sw	s4,352(sp)
80001b88:	afb3015c 	sw	s3,348(sp)
80001b8c:	afb20158 	sw	s2,344(sp)
80001b90:	afb10154 	sw	s1,340(sp)
80001b94:	afb00150 	sw	s0,336(sp)
80001b98:	00808025 	move	s0,a0
80001b9c:	0c000c9a 	jal	80003268 <kstrlen_char>
80001ba0:	00a09825 	move	s3,a1
80001ba4:	2442ffff 	addiu	v0,v0,-1
80001ba8:	02021021 	addu	v0,s0,v0
80001bac:	0202182b 	sltu	v1,s0,v0
80001bb0:	1060003f 	beqz	v1,80001cb0 <open_file+0x134>
80001bb4:	afa20140 	sw	v0,320(sp)
80001bb8:	90440000 	lbu	a0,0(v0)
80001bbc:	2403002f 	li	v1,47
80001bc0:	1083000b 	beq	a0,v1,80001bf0 <open_file+0x74>
80001bc4:	2443ffff 	addiu	v1,v0,-1
80001bc8:	02002825 	move	a1,s0
80001bcc:	2406002f 	li	a2,47
80001bd0:	00601025 	move	v0,v1
80001bd4:	10650036 	beq	v1,a1,80001cb0 <open_file+0x134>
80001bd8:	afa30140 	sw	v1,320(sp)
80001bdc:	2463ffff 	addiu	v1,v1,-1
80001be0:	90640001 	lbu	a0,1(v1)
80001be4:	00000000 	nop
80001be8:	1486fff9 	bne	a0,a2,80001bd0 <open_file+0x54>
80001bec:	00000000 	nop
80001bf0:	3c038000 	lui	v1,0x8000
80001bf4:	2463623c 	addiu	v1,v1,25148
80001bf8:	27a40010 	addiu	a0,sp,16
80001bfc:	24650130 	addiu	a1,v1,304
80001c00:	8c690000 	lw	t1,0(v1)
80001c04:	8c680004 	lw	t0,4(v1)
80001c08:	8c670008 	lw	a3,8(v1)
80001c0c:	8c66000c 	lw	a2,12(v1)
80001c10:	ac890000 	sw	t1,0(a0)
80001c14:	ac880004 	sw	t0,4(a0)
80001c18:	ac870008 	sw	a3,8(a0)
80001c1c:	ac86000c 	sw	a2,12(a0)
80001c20:	24630010 	addiu	v1,v1,16
80001c24:	1465fff6 	bne	v1,a1,80001c00 <open_file+0x84>
80001c28:	24840010 	addiu	a0,a0,16
80001c2c:	a0400000 	sb	zero,0(v0)
80001c30:	8fa20140 	lw	v0,320(sp)
80001c34:	00000000 	nop
80001c38:	24420001 	addiu	v0,v0,1
80001c3c:	afa20140 	sw	v0,320(sp)
80001c40:	02002825 	move	a1,s0
80001c44:	0c0005f4 	jal	800017d0 <do_cd>
80001c48:	27a40010 	addiu	a0,sp,16
80001c4c:	27a50140 	addiu	a1,sp,320
80001c50:	0c00044b 	jal	8000112c <get_file_name>
80001c54:	27a40144 	addiu	a0,sp,324
80001c58:	0c0005d0 	jal	80001740 <dget_first_sect>
80001c5c:	27a40010 	addiu	a0,sp,16
80001c60:	10400033 	beqz	v0,80001d30 <open_file+0x1b4>
80001c64:	0040a025 	move	s4,v0
80001c68:	24120200 	li	s2,512
80001c6c:	26910004 	addiu	s1,s4,4
80001c70:	00008025 	move	s0,zero
80001c74:	2406000b 	li	a2,11
80001c78:	27a50144 	addiu	a1,sp,324
80001c7c:	0c000c74 	jal	800031d0 <kstrcmp_char>
80001c80:	02302021 	addu	a0,s1,s0
80001c84:	1040001d 	beqz	v0,80001cfc <open_file+0x180>
80001c88:	02003825 	move	a3,s0
80001c8c:	26100020 	addiu	s0,s0,32
80001c90:	1612fff9 	bne	s0,s2,80001c78 <open_file+0xfc>
80001c94:	2406000b 	li	a2,11
80001c98:	0c000592 	jal	80001648 <dget_next_sect>
80001c9c:	27a40010 	addiu	a0,sp,16
80001ca0:	1440fff2 	bnez	v0,80001c6c <open_file+0xf0>
80001ca4:	0040a025 	move	s4,v0
80001ca8:	10000019 	b	80001d10 <open_file+0x194>
80001cac:	00001025 	move	v0,zero
80001cb0:	3c038000 	lui	v1,0x8000
80001cb4:	2463623c 	addiu	v1,v1,25148
80001cb8:	27a40010 	addiu	a0,sp,16
80001cbc:	24650130 	addiu	a1,v1,304
80001cc0:	8c690000 	lw	t1,0(v1)
80001cc4:	8c680004 	lw	t0,4(v1)
80001cc8:	8c670008 	lw	a3,8(v1)
80001ccc:	8c66000c 	lw	a2,12(v1)
80001cd0:	ac890000 	sw	t1,0(a0)
80001cd4:	ac880004 	sw	t0,4(a0)
80001cd8:	ac870008 	sw	a3,8(a0)
80001cdc:	ac86000c 	sw	a2,12(a0)
80001ce0:	24630010 	addiu	v1,v1,16
80001ce4:	1465fff6 	bne	v1,a1,80001cc0 <open_file+0x144>
80001ce8:	24840010 	addiu	a0,a0,16
80001cec:	1202ffd8 	beq	s0,v0,80001c50 <open_file+0xd4>
80001cf0:	27a50140 	addiu	a1,sp,320
80001cf4:	1000ffce 	b	80001c30 <open_file+0xb4>
80001cf8:	a0400000 	sb	zero,0(v0)
80001cfc:	02803025 	move	a2,s4
80001d00:	27a50144 	addiu	a1,sp,324
80001d04:	0c0004a6 	jal	80001298 <do_open>
80001d08:	02602025 	move	a0,s3
80001d0c:	24020001 	li	v0,1
80001d10:	8fbf0164 	lw	ra,356(sp)
80001d14:	8fb40160 	lw	s4,352(sp)
80001d18:	8fb3015c 	lw	s3,348(sp)
80001d1c:	8fb20158 	lw	s2,344(sp)
80001d20:	8fb10154 	lw	s1,340(sp)
80001d24:	8fb00150 	lw	s0,336(sp)
80001d28:	03e00008 	jr	ra
80001d2c:	27bd0168 	addiu	sp,sp,360
80001d30:	1000fff7 	b	80001d10 <open_file+0x194>
80001d34:	00001025 	move	v0,zero

80001d38 <read_file>:
80001d38:	27bdffd8 	addiu	sp,sp,-40
80001d3c:	afbf0024 	sw	ra,36(sp)
80001d40:	afb30020 	sw	s3,32(sp)
80001d44:	afb2001c 	sw	s2,28(sp)
80001d48:	afb10018 	sw	s1,24(sp)
80001d4c:	14a0000a 	bnez	a1,80001d78 <read_file+0x40>
80001d50:	afb00014 	sw	s0,20(sp)
80001d54:	00008825 	move	s1,zero
80001d58:	02201025 	move	v0,s1
80001d5c:	8fbf0024 	lw	ra,36(sp)
80001d60:	8fb30020 	lw	s3,32(sp)
80001d64:	8fb2001c 	lw	s2,28(sp)
80001d68:	8fb10018 	lw	s1,24(sp)
80001d6c:	8fb00014 	lw	s0,20(sp)
80001d70:	03e00008 	jr	ra
80001d74:	27bd0028 	addiu	sp,sp,40
80001d78:	00c08025 	move	s0,a2
80001d7c:	00a09825 	move	s3,a1
80001d80:	00809025 	move	s2,a0
80001d84:	0c00055a 	jal	80001568 <seek_sect>
80001d88:	00c02025 	move	a0,a2
80001d8c:	1040fff2 	beqz	v0,80001d58 <read_file+0x20>
80001d90:	00408825 	move	s1,v0
80001d94:	8e020020 	lw	v0,32(s0)
80001d98:	8e050024 	lw	a1,36(s0)
80001d9c:	00000000 	nop
80001da0:	24a50004 	addiu	a1,a1,4
80001da4:	8e03001c 	lw	v1,28(s0)
80001da8:	00000000 	nop
80001dac:	00431823 	subu	v1,v0,v1
80001db0:	00a32821 	addu	a1,a1,v1
80001db4:	8e030004 	lw	v1,4(s0)
80001db8:	00000000 	nop
80001dbc:	0043182b 	sltu	v1,v0,v1
80001dc0:	1060001f 	beqz	v1,80001e40 <read_file+0x108>
80001dc4:	00000000 	nop
80001dc8:	10000010 	b	80001e0c <read_file+0xd4>
80001dcc:	00008825 	move	s1,zero
80001dd0:	90a20000 	lbu	v0,0(a1)
80001dd4:	00000000 	nop
80001dd8:	a2420000 	sb	v0,0(s2)
80001ddc:	8e020020 	lw	v0,32(s0)
80001de0:	00000000 	nop
80001de4:	24420001 	addiu	v0,v0,1
80001de8:	ae020020 	sw	v0,32(s0)
80001dec:	26310001 	addiu	s1,s1,1
80001df0:	1271ffd9 	beq	s3,s1,80001d58 <read_file+0x20>
80001df4:	24a50001 	addiu	a1,a1,1
80001df8:	8e030004 	lw	v1,4(s0)
80001dfc:	00000000 	nop
80001e00:	0043182b 	sltu	v1,v0,v1
80001e04:	1060ffd4 	beqz	v1,80001d58 <read_file+0x20>
80001e08:	26520001 	addiu	s2,s2,1
80001e0c:	8e03001c 	lw	v1,28(s0)
80001e10:	00000000 	nop
80001e14:	24630200 	addiu	v1,v1,512
80001e18:	0043102b 	sltu	v0,v0,v1
80001e1c:	1440ffec 	bnez	v0,80001dd0 <read_file+0x98>
80001e20:	00000000 	nop
80001e24:	0c000529 	jal	800014a4 <get_next_sect>
80001e28:	02002025 	move	a0,s0
80001e2c:	1040ffcb 	beqz	v0,80001d5c <read_file+0x24>
80001e30:	02201025 	move	v0,s1
80001e34:	8e050024 	lw	a1,36(s0)
80001e38:	1000ffe5 	b	80001dd0 <read_file+0x98>
80001e3c:	24a50004 	addiu	a1,a1,4
80001e40:	1000ffc5 	b	80001d58 <read_file+0x20>
80001e44:	00008825 	move	s1,zero

80001e48 <write_file>:
80001e48:	27bdffc8 	addiu	sp,sp,-56
80001e4c:	afbf0034 	sw	ra,52(sp)
80001e50:	afb70030 	sw	s7,48(sp)
80001e54:	afb6002c 	sw	s6,44(sp)
80001e58:	afb50028 	sw	s5,40(sp)
80001e5c:	afb40024 	sw	s4,36(sp)
80001e60:	afb30020 	sw	s3,32(sp)
80001e64:	afb2001c 	sw	s2,28(sp)
80001e68:	afb10018 	sw	s1,24(sp)
80001e6c:	afb00014 	sw	s0,20(sp)
80001e70:	10a0000b 	beqz	a1,80001ea0 <write_file+0x58>
80001e74:	00c08025 	move	s0,a2
80001e78:	00809025 	move	s2,a0
80001e7c:	00a09825 	move	s3,a1
80001e80:	0c00055a 	jal	80001568 <seek_sect>
80001e84:	00c02025 	move	a0,a2
80001e88:	14400047 	bnez	v0,80001fa8 <write_file+0x160>
80001e8c:	00408825 	move	s1,v0
80001e90:	96030002 	lhu	v1,2(s0)
80001e94:	3402fffe 	li	v0,0xfffe
80001e98:	10620010 	beq	v1,v0,80001edc <write_file+0x94>
80001e9c:	3c028000 	lui	v0,0x8000
80001ea0:	0c00055a 	jal	80001568 <seek_sect>
80001ea4:	02002025 	move	a0,s0
80001ea8:	00008825 	move	s1,zero
80001eac:	02201025 	move	v0,s1
80001eb0:	8fbf0034 	lw	ra,52(sp)
80001eb4:	8fb70030 	lw	s7,48(sp)
80001eb8:	8fb6002c 	lw	s6,44(sp)
80001ebc:	8fb50028 	lw	s5,40(sp)
80001ec0:	8fb40024 	lw	s4,36(sp)
80001ec4:	8fb30020 	lw	s3,32(sp)
80001ec8:	8fb2001c 	lw	s2,28(sp)
80001ecc:	8fb10018 	lw	s1,24(sp)
80001ed0:	8fb00014 	lw	s0,20(sp)
80001ed4:	03e00008 	jr	ra
80001ed8:	27bd0038 	addiu	sp,sp,56
80001edc:	8c446374 	lw	a0,25460(v0)
80001ee0:	0c000518 	jal	80001460 <read_disk>
80001ee4:	24140100 	li	s4,256
80001ee8:	3c158000 	lui	s5,0x8000
80001eec:	26b5636c 	addiu	s5,s5,25452
80001ef0:	94430004 	lhu	v1,4(v0)
80001ef4:	00000000 	nop
80001ef8:	10600014 	beqz	v1,80001f4c <write_file+0x104>
80001efc:	24460004 	addiu	a2,v0,4
80001f00:	24430006 	addiu	v1,v0,6
80001f04:	24040001 	li	a0,1
80001f08:	94650000 	lhu	a1,0(v1)
80001f0c:	00000000 	nop
80001f10:	10a0000f 	beqz	a1,80001f50 <write_file+0x108>
80001f14:	00603025 	move	a2,v1
80001f18:	24840001 	addiu	a0,a0,1
80001f1c:	1494fffa 	bne	a0,s4,80001f08 <write_file+0xc0>
80001f20:	24630002 	addiu	v1,v1,2
80001f24:	94440002 	lhu	a0,2(v0)
80001f28:	8ea2000c 	lw	v0,12(s5)
80001f2c:	00000000 	nop
80001f30:	0082102b 	sltu	v0,a0,v0
80001f34:	1040ffda 	beqz	v0,80001ea0 <write_file+0x58>
80001f38:	00000000 	nop
80001f3c:	0c000518 	jal	80001460 <read_disk>
80001f40:	24840001 	addiu	a0,a0,1
80001f44:	1000ffea 	b	80001ef0 <write_file+0xa8>
80001f48:	00000000 	nop
80001f4c:	02202025 	move	a0,s1
80001f50:	24030001 	li	v1,1
80001f54:	a0430000 	sb	v1,0(v0)
80001f58:	2403ffff 	li	v1,-1
80001f5c:	a4c30000 	sh	v1,0(a2)
80001f60:	94510002 	lhu	s1,2(v0)
80001f64:	3c028000 	lui	v0,0x8000
80001f68:	2442636c 	addiu	v0,v0,25452
80001f6c:	8c430008 	lw	v1,8(v0)
80001f70:	00000000 	nop
80001f74:	02238823 	subu	s1,s1,v1
80001f78:	00118a00 	sll	s1,s1,0x8
80001f7c:	02248821 	addu	s1,s1,a0
80001f80:	2623fffe 	addiu	v1,s1,-2
80001f84:	a6030002 	sh	v1,2(s0)
80001f88:	8c440018 	lw	a0,24(v0)
80001f8c:	00000000 	nop
80001f90:	2484fffe 	addiu	a0,a0,-2
80001f94:	0c000518 	jal	80001460 <read_disk>
80001f98:	00912021 	addu	a0,a0,s1
80001f9c:	ae020024 	sw	v0,36(s0)
80001fa0:	ae110018 	sw	s1,24(s0)
80001fa4:	ae00001c 	sw	zero,28(s0)
80001fa8:	8e020024 	lw	v0,36(s0)
80001fac:	24030001 	li	v1,1
80001fb0:	a0430000 	sb	v1,0(v0)
80001fb4:	8e020024 	lw	v0,36(s0)
80001fb8:	00000000 	nop
80001fbc:	24420004 	addiu	v0,v0,4
80001fc0:	8e030020 	lw	v1,32(s0)
80001fc4:	8e04001c 	lw	a0,28(s0)
80001fc8:	00000000 	nop
80001fcc:	00641823 	subu	v1,v1,a0
80001fd0:	00431021 	addu	v0,v0,v1
80001fd4:	00008825 	move	s1,zero
80001fd8:	3c158000 	lui	s5,0x8000
80001fdc:	26b5636c 	addiu	s5,s5,25452
80001fe0:	10000059 	b	80002148 <write_file+0x300>
80001fe4:	24140100 	li	s4,256
80001fe8:	0c000529 	jal	800014a4 <get_next_sect>
80001fec:	02002025 	move	a0,s0
80001ff0:	10400007 	beqz	v0,80002010 <write_file+0x1c8>
80001ff4:	0040b025 	move	s6,v0
80001ff8:	8e020024 	lw	v0,36(s0)
80001ffc:	24030001 	li	v1,1
80002000:	a0430000 	sb	v1,0(v0)
80002004:	8e020024 	lw	v0,36(s0)
80002008:	10000057 	b	80002168 <write_file+0x320>
8000200c:	24420004 	addiu	v0,v0,4
80002010:	8ea40008 	lw	a0,8(s5)
80002014:	0c000518 	jal	80001460 <read_disk>
80002018:	00000000 	nop
8000201c:	10400018 	beqz	v0,80002080 <write_file+0x238>
80002020:	00000000 	nop
80002024:	94430004 	lhu	v1,4(v0)
80002028:	00000000 	nop
8000202c:	10600018 	beqz	v1,80002090 <write_file+0x248>
80002030:	24460004 	addiu	a2,v0,4
80002034:	24430006 	addiu	v1,v0,6
80002038:	24050001 	li	a1,1
8000203c:	94640000 	lhu	a0,0(v1)
80002040:	00000000 	nop
80002044:	10800013 	beqz	a0,80002094 <write_file+0x24c>
80002048:	00603025 	move	a2,v1
8000204c:	24a50001 	addiu	a1,a1,1
80002050:	14b4fffa 	bne	a1,s4,8000203c <write_file+0x1f4>
80002054:	24630002 	addiu	v1,v1,2
80002058:	94440002 	lhu	a0,2(v0)
8000205c:	8ea2000c 	lw	v0,12(s5)
80002060:	00000000 	nop
80002064:	0082102b 	sltu	v0,a0,v0
80002068:	10400005 	beqz	v0,80002080 <write_file+0x238>
8000206c:	00000000 	nop
80002070:	0c000518 	jal	80001460 <read_disk>
80002074:	24840001 	addiu	a0,a0,1
80002078:	1440ffea 	bnez	v0,80002024 <write_file+0x1dc>
8000207c:	00000000 	nop
80002080:	0c00055a 	jal	80001568 <seek_sect>
80002084:	02002025 	move	a0,s0
80002088:	1000ff89 	b	80001eb0 <write_file+0x68>
8000208c:	02201025 	move	v0,s1
80002090:	02c02825 	move	a1,s6
80002094:	24160001 	li	s6,1
80002098:	a0560000 	sb	s6,0(v0)
8000209c:	2403ffff 	li	v1,-1
800020a0:	a4c30000 	sh	v1,0(a2)
800020a4:	8ea40008 	lw	a0,8(s5)
800020a8:	94570002 	lhu	s7,2(v0)
800020ac:	00000000 	nop
800020b0:	02e4b823 	subu	s7,s7,a0
800020b4:	0017ba00 	sll	s7,s7,0x8
800020b8:	02e5b821 	addu	s7,s7,a1
800020bc:	8e020018 	lw	v0,24(s0)
800020c0:	00000000 	nop
800020c4:	00021202 	srl	v0,v0,0x8
800020c8:	0c000518 	jal	80001460 <read_disk>
800020cc:	00442021 	addu	a0,v0,a0
800020d0:	a0560000 	sb	s6,0(v0)
800020d4:	8e030018 	lw	v1,24(s0)
800020d8:	00000000 	nop
800020dc:	00031840 	sll	v1,v1,0x1
800020e0:	306301fe 	andi	v1,v1,0x1fe
800020e4:	00431021 	addu	v0,v0,v1
800020e8:	a4570004 	sh	s7,4(v0)
800020ec:	8ea40018 	lw	a0,24(s5)
800020f0:	00000000 	nop
800020f4:	2484fffe 	addiu	a0,a0,-2
800020f8:	0c000518 	jal	80001460 <read_disk>
800020fc:	00972021 	addu	a0,a0,s7
80002100:	ae020024 	sw	v0,36(s0)
80002104:	ae170018 	sw	s7,24(s0)
80002108:	8e02001c 	lw	v0,28(s0)
8000210c:	00000000 	nop
80002110:	24420200 	addiu	v0,v0,512
80002114:	1000ffb8 	b	80001ff8 <write_file+0x1b0>
80002118:	ae02001c 	sw	v0,28(s0)
8000211c:	92430000 	lbu	v1,0(s2)
80002120:	00000000 	nop
80002124:	a0430000 	sb	v1,0(v0)
80002128:	8e030020 	lw	v1,32(s0)
8000212c:	00000000 	nop
80002130:	24630001 	addiu	v1,v1,1
80002134:	ae030020 	sw	v1,32(s0)
80002138:	24420001 	addiu	v0,v0,1
8000213c:	26310001 	addiu	s1,s1,1
80002140:	1271ffcf 	beq	s3,s1,80002080 <write_file+0x238>
80002144:	26520001 	addiu	s2,s2,1
80002148:	8e03001c 	lw	v1,28(s0)
8000214c:	00000000 	nop
80002150:	24640200 	addiu	a0,v1,512
80002154:	8e030020 	lw	v1,32(s0)
80002158:	00000000 	nop
8000215c:	0064182b 	sltu	v1,v1,a0
80002160:	1060ffa1 	beqz	v1,80001fe8 <write_file+0x1a0>
80002164:	00000000 	nop
80002168:	8e040020 	lw	a0,32(s0)
8000216c:	8e030004 	lw	v1,4(s0)
80002170:	00000000 	nop
80002174:	0083182b 	sltu	v1,a0,v1
80002178:	1460ffe8 	bnez	v1,8000211c <write_file+0x2d4>
8000217c:	24840001 	addiu	a0,a0,1
80002180:	1000ffe6 	b	8000211c <write_file+0x2d4>
80002184:	ae040004 	sw	a0,4(s0)

80002188 <close_file>:
80002188:	27bdffe8 	addiu	sp,sp,-24
8000218c:	afbf0014 	sw	ra,20(sp)
80002190:	afb00010 	sw	s0,16(sp)
80002194:	00808025 	move	s0,a0
80002198:	94840014 	lhu	a0,20(a0)
8000219c:	0c000518 	jal	80001460 <read_disk>
800021a0:	00000000 	nop
800021a4:	24030001 	li	v1,1
800021a8:	a0430000 	sb	v1,0(v0)
800021ac:	24420004 	addiu	v0,v0,4
800021b0:	96030016 	lhu	v1,22(s0)
800021b4:	00000000 	nop
800021b8:	00431021 	addu	v0,v0,v1
800021bc:	96030002 	lhu	v1,2(s0)
800021c0:	00000000 	nop
800021c4:	24630002 	addiu	v1,v1,2
800021c8:	a443001a 	sh	v1,26(v0)
800021cc:	8e030004 	lw	v1,4(s0)
800021d0:	0c000504 	jal	80001410 <write_buffer>
800021d4:	ac43001c 	sw	v1,28(v0)
800021d8:	8fbf0014 	lw	ra,20(sp)
800021dc:	8fb00010 	lw	s0,16(sp)
800021e0:	03e00008 	jr	ra
800021e4:	27bd0018 	addiu	sp,sp,24

800021e8 <end_file>:
800021e8:	8c820020 	lw	v0,32(a0)
800021ec:	8c830004 	lw	v1,4(a0)
800021f0:	00000000 	nop
800021f4:	0043102b 	sltu	v0,v0,v1
800021f8:	03e00008 	jr	ra
800021fc:	38420001 	xori	v0,v0,0x1

80002200 <init_fs>:
80002200:	27bdffe0 	addiu	sp,sp,-32
80002204:	afbf001c 	sw	ra,28(sp)
80002208:	afb20018 	sw	s2,24(sp)
8000220c:	afb10014 	sw	s1,20(sp)
80002210:	afb00010 	sw	s0,16(sp)
80002214:	3c108000 	lui	s0,0x8000
80002218:	a2006388 	sb	zero,25480(s0)
8000221c:	3c028000 	lui	v0,0x8000
80002220:	24110001 	li	s1,1
80002224:	a0516198 	sb	s1,24984(v0)
80002228:	24426198 	addiu	v0,v0,24984
8000222c:	a0510001 	sb	s1,1(v0)
80002230:	a0510002 	sb	s1,2(v0)
80002234:	a0510003 	sb	s1,3(v0)
80002238:	0c000518 	jal	80001460 <read_disk>
8000223c:	00002025 	move	a0,zero
80002240:	26106388 	addiu	s0,s0,25480
80002244:	960201ca 	lhu	v0,458(s0)
80002248:	961201cc 	lhu	s2,460(s0)
8000224c:	00000000 	nop
80002250:	00129400 	sll	s2,s2,0x10
80002254:	02429021 	addu	s2,s2,v0
80002258:	0c000518 	jal	80001460 <read_disk>
8000225c:	02402025 	move	a0,s2
80002260:	3c068000 	lui	a2,0x8000
80002264:	24c4636c 	addiu	a0,a2,25452
80002268:	ac920004 	sw	s2,4(a0)
8000226c:	96030012 	lhu	v1,18(s0)
80002270:	00000000 	nop
80002274:	00722821 	addu	a1,v1,s2
80002278:	ac850008 	sw	a1,8(a0)
8000227c:	92020014 	lbu	v0,20(s0)
80002280:	00000000 	nop
80002284:	a0c2636c 	sb	v0,25452(a2)
80002288:	9603001a 	lhu	v1,26(s0)
8000228c:	00000000 	nop
80002290:	2466ffff 	addiu	a2,v1,-1
80002294:	00d29021 	addu	s2,a2,s2
80002298:	02459021 	addu	s2,s2,a1
8000229c:	ac92000c 	sw	s2,12(a0)
800022a0:	00430018 	mult	v0,v1
800022a4:	00001812 	mflo	v1
800022a8:	00651821 	addu	v1,v1,a1
800022ac:	ac830010 	sw	v1,16(a0)
800022b0:	92050015 	lbu	a1,21(s0)
800022b4:	92020016 	lbu	v0,22(s0)
800022b8:	00000000 	nop
800022bc:	00021200 	sll	v0,v0,0x8
800022c0:	00451025 	or	v0,v0,a1
800022c4:	00021102 	srl	v0,v0,0x4
800022c8:	00431021 	addu	v0,v0,v1
800022cc:	ac820018 	sw	v0,24(a0)
800022d0:	2442ffff 	addiu	v0,v0,-1
800022d4:	ac820014 	sw	v0,20(a0)
800022d8:	3c028000 	lui	v0,0x8000
800022dc:	a051623c 	sb	s1,25148(v0)
800022e0:	2442623c 	addiu	v0,v0,25148
800022e4:	a4430002 	sh	v1,2(v0)
800022e8:	24030041 	li	v1,65
800022ec:	a043002c 	sb	v1,44(v0)
800022f0:	2403003a 	li	v1,58
800022f4:	a043002d 	sb	v1,45(v0)
800022f8:	2403002f 	li	v1,47
800022fc:	a043002e 	sb	v1,46(v0)
80002300:	24030003 	li	v1,3
80002304:	a043012c 	sb	v1,300(v0)
80002308:	8fbf001c 	lw	ra,28(sp)
8000230c:	8fb20018 	lw	s2,24(sp)
80002310:	8fb10014 	lw	s1,20(sp)
80002314:	8fb00010 	lw	s0,16(sp)
80002318:	03e00008 	jr	ra
8000231c:	27bd0020 	addiu	sp,sp,32

80002320 <pwd__>:
80002320:	3c028000 	lui	v0,0x8000
80002324:	90426368 	lbu	v0,25448(v0)
80002328:	00000000 	nop
8000232c:	00a2282b 	sltu	a1,a1,v0
80002330:	14a00018 	bnez	a1,80002394 <pwd__+0x74>
80002334:	00000000 	nop
80002338:	10400012 	beqz	v0,80002384 <pwd__+0x64>
8000233c:	00003025 	move	a2,zero
80002340:	3c028000 	lui	v0,0x8000
80002344:	24426268 	addiu	v0,v0,25192
80002348:	00802825 	move	a1,a0
8000234c:	3c078000 	lui	a3,0x8000
80002350:	24e7623c 	addiu	a3,a3,25148
80002354:	2408ffd5 	li	t0,-43
80002358:	01074023 	subu	t0,t0,a3
8000235c:	90430000 	lbu	v1,0(v0)
80002360:	00000000 	nop
80002364:	a0a30000 	sb	v1,0(a1)
80002368:	01023021 	addu	a2,t0,v0
8000236c:	24420001 	addiu	v0,v0,1
80002370:	90e3012c 	lbu	v1,300(a3)
80002374:	00000000 	nop
80002378:	00c3182a 	slt	v1,a2,v1
8000237c:	1460fff7 	bnez	v1,8000235c <pwd__+0x3c>
80002380:	24a50001 	addiu	a1,a1,1
80002384:	00862021 	addu	a0,a0,a2
80002388:	a0800000 	sb	zero,0(a0)
8000238c:	03e00008 	jr	ra
80002390:	24020001 	li	v0,1
80002394:	03e00008 	jr	ra
80002398:	00001025 	move	v0,zero

8000239c <cd__>:
8000239c:	27bdffe8 	addiu	sp,sp,-24
800023a0:	afbf0014 	sw	ra,20(sp)
800023a4:	00802825 	move	a1,a0
800023a8:	3c048000 	lui	a0,0x8000
800023ac:	0c0005f4 	jal	800017d0 <do_cd>
800023b0:	2484623c 	addiu	a0,a0,25148
800023b4:	8fbf0014 	lw	ra,20(sp)
800023b8:	00000000 	nop
800023bc:	03e00008 	jr	ra
800023c0:	27bd0018 	addiu	sp,sp,24

800023c4 <crt_file__>:
800023c4:	27bdfe60 	addiu	sp,sp,-416
800023c8:	afbf019c 	sw	ra,412(sp)
800023cc:	afb20198 	sw	s2,408(sp)
800023d0:	afb10194 	sw	s1,404(sp)
800023d4:	afb00190 	sw	s0,400(sp)
800023d8:	0c000c9a 	jal	80003268 <kstrlen_char>
800023dc:	00808025 	move	s0,a0
800023e0:	2442ffff 	addiu	v0,v0,-1
800023e4:	02021821 	addu	v1,s0,v0
800023e8:	0203102b 	sltu	v0,s0,v1
800023ec:	1040000f 	beqz	v0,8000242c <crt_file__+0x68>
800023f0:	afa30168 	sw	v1,360(sp)
800023f4:	90640000 	lbu	a0,0(v1)
800023f8:	2402002f 	li	v0,47
800023fc:	108200b3 	beq	a0,v0,800026cc <crt_file__+0x308>
80002400:	2462ffff 	addiu	v0,v1,-1
80002404:	02002825 	move	a1,s0
80002408:	2406002f 	li	a2,47
8000240c:	00401825 	move	v1,v0
80002410:	10450006 	beq	v0,a1,8000242c <crt_file__+0x68>
80002414:	afa20168 	sw	v0,360(sp)
80002418:	2442ffff 	addiu	v0,v0,-1
8000241c:	90440001 	lbu	a0,1(v0)
80002420:	00000000 	nop
80002424:	1486fff9 	bne	a0,a2,8000240c <crt_file__+0x48>
80002428:	00000000 	nop
8000242c:	3c028000 	lui	v0,0x8000
80002430:	2442623c 	addiu	v0,v0,25148
80002434:	27a40038 	addiu	a0,sp,56
80002438:	24450130 	addiu	a1,v0,304
8000243c:	8c490000 	lw	t1,0(v0)
80002440:	8c480004 	lw	t0,4(v0)
80002444:	8c470008 	lw	a3,8(v0)
80002448:	8c46000c 	lw	a2,12(v0)
8000244c:	ac890000 	sw	t1,0(a0)
80002450:	ac880004 	sw	t0,4(a0)
80002454:	ac870008 	sw	a3,8(a0)
80002458:	ac86000c 	sw	a2,12(a0)
8000245c:	24420010 	addiu	v0,v0,16
80002460:	1445fff6 	bne	v0,a1,8000243c <crt_file__+0x78>
80002464:	24840010 	addiu	a0,a0,16
80002468:	90640000 	lbu	a0,0(v1)
8000246c:	2402002f 	li	v0,47
80002470:	108200a5 	beq	a0,v0,80002708 <crt_file__+0x344>
80002474:	00000000 	nop
80002478:	27a2016c 	addiu	v0,sp,364
8000247c:	27a3018c 	addiu	v1,sp,396
80002480:	a0400000 	sb	zero,0(v0)
80002484:	24420001 	addiu	v0,v0,1
80002488:	1462fffd 	bne	v1,v0,80002480 <crt_file__+0xbc>
8000248c:	00000000 	nop
80002490:	27a50168 	addiu	a1,sp,360
80002494:	0c00044b 	jal	8000112c <get_file_name>
80002498:	27a4016c 	addiu	a0,sp,364
8000249c:	10400085 	beqz	v0,800026b4 <crt_file__+0x2f0>
800024a0:	00000000 	nop
800024a4:	93a30174 	lbu	v1,372(sp)
800024a8:	24020020 	li	v0,32
800024ac:	10620030 	beq	v1,v0,80002570 <crt_file__+0x1ac>
800024b0:	00000000 	nop
800024b4:	afa00188 	sw	zero,392(sp)
800024b8:	0c0005d0 	jal	80001740 <dget_first_sect>
800024bc:	27a40038 	addiu	a0,sp,56
800024c0:	1040000f 	beqz	v0,80002500 <crt_file__+0x13c>
800024c4:	00000000 	nop
800024c8:	24500004 	addiu	s0,v0,4
800024cc:	24510204 	addiu	s1,v0,516
800024d0:	2406000b 	li	a2,11
800024d4:	02002825 	move	a1,s0
800024d8:	0c000c74 	jal	800031d0 <kstrcmp_char>
800024dc:	27a4016c 	addiu	a0,sp,364
800024e0:	10400074 	beqz	v0,800026b4 <crt_file__+0x2f0>
800024e4:	26100020 	addiu	s0,s0,32
800024e8:	1630fffa 	bne	s1,s0,800024d4 <crt_file__+0x110>
800024ec:	2406000b 	li	a2,11
800024f0:	0c000592 	jal	80001648 <dget_next_sect>
800024f4:	27a40038 	addiu	a0,sp,56
800024f8:	1440fff3 	bnez	v0,800024c8 <crt_file__+0x104>
800024fc:	00000000 	nop
80002500:	0c0005d0 	jal	80001740 <dget_first_sect>
80002504:	27a40038 	addiu	a0,sp,56
80002508:	10400030 	beqz	v0,800025cc <crt_file__+0x208>
8000250c:	00409025 	move	s2,v0
80002510:	241100e5 	li	s1,229
80002514:	92420004 	lbu	v0,4(s2)
80002518:	00000000 	nop
8000251c:	1040001e 	beqz	v0,80002598 <crt_file__+0x1d4>
80002520:	26440004 	addiu	a0,s2,4
80002524:	1051004f 	beq	v0,s1,80002664 <crt_file__+0x2a0>
80002528:	26420024 	addiu	v0,s2,36
8000252c:	00802825 	move	a1,a0
80002530:	24860200 	addiu	a2,a0,512
80002534:	00458023 	subu	s0,v0,a1
80002538:	90430000 	lbu	v1,0(v0)
8000253c:	00000000 	nop
80002540:	10600016 	beqz	v1,8000259c <crt_file__+0x1d8>
80002544:	00402025 	move	a0,v0
80002548:	10710014 	beq	v1,s1,8000259c <crt_file__+0x1d8>
8000254c:	24420020 	addiu	v0,v0,32
80002550:	1446fff8 	bne	v0,a2,80002534 <crt_file__+0x170>
80002554:	00000000 	nop
80002558:	0c000592 	jal	80001648 <dget_next_sect>
8000255c:	27a40038 	addiu	a0,sp,56
80002560:	1440ffec 	bnez	v0,80002514 <crt_file__+0x150>
80002564:	00409025 	move	s2,v0
80002568:	10000018 	b	800025cc <crt_file__+0x208>
8000256c:	00000000 	nop
80002570:	93a30175 	lbu	v1,373(sp)
80002574:	00000000 	nop
80002578:	1462ffce 	bne	v1,v0,800024b4 <crt_file__+0xf0>
8000257c:	00000000 	nop
80002580:	93a30176 	lbu	v1,374(sp)
80002584:	00000000 	nop
80002588:	1462ffca 	bne	v1,v0,800024b4 <crt_file__+0xf0>
8000258c:	24020010 	li	v0,16
80002590:	1000ffc8 	b	800024b4 <crt_file__+0xf0>
80002594:	a3a20177 	sb	v0,375(sp)
80002598:	00008025 	move	s0,zero
8000259c:	24020001 	li	v0,1
800025a0:	a2420000 	sb	v0,0(s2)
800025a4:	24060020 	li	a2,32
800025a8:	0c000ca8 	jal	800032a0 <kmemcpy>
800025ac:	27a5016c 	addiu	a1,sp,364
800025b0:	0c000504 	jal	80001410 <write_buffer>
800025b4:	00000000 	nop
800025b8:	02003825 	move	a3,s0
800025bc:	02403025 	move	a2,s2
800025c0:	8fa50168 	lw	a1,360(sp)
800025c4:	0c0004a6 	jal	80001298 <do_open>
800025c8:	27a40010 	addiu	a0,sp,16
800025cc:	93a30177 	lbu	v1,375(sp)
800025d0:	24020010 	li	v0,16
800025d4:	14620034 	bne	v1,v0,800026a8 <crt_file__+0x2e4>
800025d8:	24020020 	li	v0,32
800025dc:	a3a2016d 	sb	v0,365(sp)
800025e0:	a3a2016e 	sb	v0,366(sp)
800025e4:	a3a2016f 	sb	v0,367(sp)
800025e8:	a3a20170 	sb	v0,368(sp)
800025ec:	a3a20171 	sb	v0,369(sp)
800025f0:	a3a20172 	sb	v0,370(sp)
800025f4:	a3a20173 	sb	v0,371(sp)
800025f8:	2402002e 	li	v0,46
800025fc:	a3a2016c 	sb	v0,364(sp)
80002600:	97a20012 	lhu	v0,18(sp)
80002604:	00000000 	nop
80002608:	24420002 	addiu	v0,v0,2
8000260c:	a7a20186 	sh	v0,390(sp)
80002610:	afa00188 	sw	zero,392(sp)
80002614:	27a60010 	addiu	a2,sp,16
80002618:	24050020 	li	a1,32
8000261c:	0c000792 	jal	80001e48 <write_file>
80002620:	27a4016c 	addiu	a0,sp,364
80002624:	24030020 	li	v1,32
80002628:	14430010 	bne	v0,v1,8000266c <crt_file__+0x2a8>
8000262c:	24030001 	li	v1,1
80002630:	2402002e 	li	v0,46
80002634:	a3a2016d 	sb	v0,365(sp)
80002638:	93a20038 	lbu	v0,56(sp)
8000263c:	00000000 	nop
80002640:	1043000e 	beq	v0,v1,8000267c <crt_file__+0x2b8>
80002644:	27a60010 	addiu	a2,sp,16
80002648:	1440000d 	bnez	v0,80002680 <crt_file__+0x2bc>
8000264c:	00000000 	nop
80002650:	97a2003e 	lhu	v0,62(sp)
80002654:	00000000 	nop
80002658:	24420002 	addiu	v0,v0,2
8000265c:	10000008 	b	80002680 <crt_file__+0x2bc>
80002660:	a7a20186 	sh	v0,390(sp)
80002664:	1000ffcd 	b	8000259c <crt_file__+0x1d8>
80002668:	00008025 	move	s0,zero
8000266c:	0c000862 	jal	80002188 <close_file>
80002670:	27a40010 	addiu	a0,sp,16
80002674:	1000000f 	b	800026b4 <crt_file__+0x2f0>
80002678:	00001025 	move	v0,zero
8000267c:	a7a00186 	sh	zero,390(sp)
80002680:	24050020 	li	a1,32
80002684:	0c000792 	jal	80001e48 <write_file>
80002688:	27a4016c 	addiu	a0,sp,364
8000268c:	24030020 	li	v1,32
80002690:	10430005 	beq	v0,v1,800026a8 <crt_file__+0x2e4>
80002694:	00000000 	nop
80002698:	0c000862 	jal	80002188 <close_file>
8000269c:	27a40010 	addiu	a0,sp,16
800026a0:	10000004 	b	800026b4 <crt_file__+0x2f0>
800026a4:	00001025 	move	v0,zero
800026a8:	0c000862 	jal	80002188 <close_file>
800026ac:	27a40010 	addiu	a0,sp,16
800026b0:	24020001 	li	v0,1
800026b4:	8fbf019c 	lw	ra,412(sp)
800026b8:	8fb20198 	lw	s2,408(sp)
800026bc:	8fb10194 	lw	s1,404(sp)
800026c0:	8fb00190 	lw	s0,400(sp)
800026c4:	03e00008 	jr	ra
800026c8:	27bd01a0 	addiu	sp,sp,416
800026cc:	3c028000 	lui	v0,0x8000
800026d0:	2442623c 	addiu	v0,v0,25148
800026d4:	27a40038 	addiu	a0,sp,56
800026d8:	24450130 	addiu	a1,v0,304
800026dc:	8c490000 	lw	t1,0(v0)
800026e0:	8c480004 	lw	t0,4(v0)
800026e4:	8c470008 	lw	a3,8(v0)
800026e8:	8c46000c 	lw	a2,12(v0)
800026ec:	ac890000 	sw	t1,0(a0)
800026f0:	ac880004 	sw	t0,4(a0)
800026f4:	ac870008 	sw	a3,8(a0)
800026f8:	ac86000c 	sw	a2,12(a0)
800026fc:	24420010 	addiu	v0,v0,16
80002700:	1445fff6 	bne	v0,a1,800026dc <crt_file__+0x318>
80002704:	24840010 	addiu	a0,a0,16
80002708:	a0600000 	sb	zero,0(v1)
8000270c:	8fa20168 	lw	v0,360(sp)
80002710:	00000000 	nop
80002714:	24420001 	addiu	v0,v0,1
80002718:	afa20168 	sw	v0,360(sp)
8000271c:	02002825 	move	a1,s0
80002720:	0c0005f4 	jal	800017d0 <do_cd>
80002724:	27a40038 	addiu	a0,sp,56
80002728:	1000ff54 	b	8000247c <crt_file__+0xb8>
8000272c:	27a2016c 	addiu	v0,sp,364

80002730 <del_file__>:
80002730:	27bdff90 	addiu	sp,sp,-112
80002734:	afbf006c 	sw	ra,108(sp)
80002738:	afb30068 	sw	s3,104(sp)
8000273c:	afb20064 	sw	s2,100(sp)
80002740:	afb10060 	sw	s1,96(sp)
80002744:	afb0005c 	sw	s0,92(sp)
80002748:	0c0006df 	jal	80001b7c <open_file>
8000274c:	27a50010 	addiu	a1,sp,16
80002750:	1040003f 	beqz	v0,80002850 <del_file__+0x120>
80002754:	00000000 	nop
80002758:	93a20010 	lbu	v0,16(sp)
8000275c:	00000000 	nop
80002760:	30420010 	andi	v0,v0,0x10
80002764:	10400015 	beqz	v0,800027bc <del_file__+0x8c>
80002768:	241000e5 	li	s0,229
8000276c:	2411002e 	li	s1,46
80002770:	8fa20030 	lw	v0,48(sp)
80002774:	8fa30014 	lw	v1,20(sp)
80002778:	00000000 	nop
8000277c:	0043102b 	sltu	v0,v0,v1
80002780:	1040000e 	beqz	v0,800027bc <del_file__+0x8c>
80002784:	27a60010 	addiu	a2,sp,16
80002788:	24050020 	li	a1,32
8000278c:	0c00074e 	jal	80001d38 <read_file>
80002790:	27a40038 	addiu	a0,sp,56
80002794:	93a20038 	lbu	v0,56(sp)
80002798:	00000000 	nop
8000279c:	1050fff4 	beq	v0,s0,80002770 <del_file__+0x40>
800027a0:	00000000 	nop
800027a4:	1040fff2 	beqz	v0,80002770 <del_file__+0x40>
800027a8:	00000000 	nop
800027ac:	1051fff0 	beq	v0,s1,80002770 <del_file__+0x40>
800027b0:	00001025 	move	v0,zero
800027b4:	10000026 	b	80002850 <del_file__+0x120>
800027b8:	00000000 	nop
800027bc:	97a20012 	lhu	v0,18(sp)
800027c0:	00000000 	nop
800027c4:	24500002 	addiu	s0,v0,2
800027c8:	24420003 	addiu	v0,v0,3
800027cc:	3042ffff 	andi	v0,v0,0xffff
800027d0:	2c420002 	sltiu	v0,v0,2
800027d4:	14400012 	bnez	v0,80002820 <del_file__+0xf0>
800027d8:	3210ffff 	andi	s0,s0,0xffff
800027dc:	3c118000 	lui	s1,0x8000
800027e0:	2631636c 	addiu	s1,s1,25452
800027e4:	24130001 	li	s3,1
800027e8:	3412ffff 	li	s2,0xffff
800027ec:	00102202 	srl	a0,s0,0x8
800027f0:	8e220008 	lw	v0,8(s1)
800027f4:	0c000518 	jal	80001460 <read_disk>
800027f8:	00822021 	addu	a0,a0,v0
800027fc:	1040001b 	beqz	v0,8000286c <del_file__+0x13c>
80002800:	24430004 	addiu	v1,v0,4
80002804:	00108040 	sll	s0,s0,0x1
80002808:	321001fe 	andi	s0,s0,0x1fe
8000280c:	00701821 	addu	v1,v1,s0
80002810:	94700000 	lhu	s0,0(v1)
80002814:	a0530000 	sb	s3,0(v0)
80002818:	1612fff4 	bne	s0,s2,800027ec <del_file__+0xbc>
8000281c:	a4600000 	sh	zero,0(v1)
80002820:	97a40024 	lhu	a0,36(sp)
80002824:	0c000518 	jal	80001460 <read_disk>
80002828:	00000000 	nop
8000282c:	10400011 	beqz	v0,80002874 <del_file__+0x144>
80002830:	24030001 	li	v1,1
80002834:	a0430000 	sb	v1,0(v0)
80002838:	97a30026 	lhu	v1,38(sp)
8000283c:	00000000 	nop
80002840:	00431021 	addu	v0,v0,v1
80002844:	2403ffe5 	li	v1,-27
80002848:	a0430004 	sb	v1,4(v0)
8000284c:	24020001 	li	v0,1
80002850:	8fbf006c 	lw	ra,108(sp)
80002854:	8fb30068 	lw	s3,104(sp)
80002858:	8fb20064 	lw	s2,100(sp)
8000285c:	8fb10060 	lw	s1,96(sp)
80002860:	8fb0005c 	lw	s0,92(sp)
80002864:	03e00008 	jr	ra
80002868:	27bd0070 	addiu	sp,sp,112
8000286c:	1000fff8 	b	80002850 <del_file__+0x120>
80002870:	00001025 	move	v0,zero
80002874:	1000fff6 	b	80002850 <del_file__+0x120>
80002878:	00001025 	move	v0,zero

8000287c <fopen__>:
8000287c:	27bdffe8 	addiu	sp,sp,-24
80002880:	afbf0014 	sw	ra,20(sp)
80002884:	afb00010 	sw	s0,16(sp)
80002888:	3c028000 	lui	v0,0x8000
8000288c:	90426198 	lbu	v0,24984(v0)
80002890:	00000000 	nop
80002894:	14400015 	bnez	v0,800028ec <fopen__+0x70>
80002898:	3c028000 	lui	v0,0x8000
8000289c:	90426199 	lbu	v0,24985(v0)
800028a0:	00000000 	nop
800028a4:	1440000d 	bnez	v0,800028dc <fopen__+0x60>
800028a8:	3c028000 	lui	v0,0x8000
800028ac:	9042619a 	lbu	v0,24986(v0)
800028b0:	00000000 	nop
800028b4:	1440000b 	bnez	v0,800028e4 <fopen__+0x68>
800028b8:	3c028000 	lui	v0,0x8000
800028bc:	9043619b 	lbu	v1,24987(v0)
800028c0:	00001025 	move	v0,zero
800028c4:	1460000a 	bnez	v1,800028f0 <fopen__+0x74>
800028c8:	24100003 	li	s0,3
800028cc:	8fbf0014 	lw	ra,20(sp)
800028d0:	8fb00010 	lw	s0,16(sp)
800028d4:	03e00008 	jr	ra
800028d8:	27bd0018 	addiu	sp,sp,24
800028dc:	10000004 	b	800028f0 <fopen__+0x74>
800028e0:	24100001 	li	s0,1
800028e4:	10000002 	b	800028f0 <fopen__+0x74>
800028e8:	24100002 	li	s0,2
800028ec:	00008025 	move	s0,zero
800028f0:	00101080 	sll	v0,s0,0x2
800028f4:	00501021 	addu	v0,v0,s0
800028f8:	000210c0 	sll	v0,v0,0x3
800028fc:	3c058000 	lui	a1,0x8000
80002900:	24a5619c 	addiu	a1,a1,24988
80002904:	0c0006df 	jal	80001b7c <open_file>
80002908:	00a22821 	addu	a1,a1,v0
8000290c:	1040ffef 	beqz	v0,800028cc <fopen__+0x50>
80002910:	00000000 	nop
80002914:	3c028000 	lui	v0,0x8000
80002918:	24426198 	addiu	v0,v0,24984
8000291c:	02021021 	addu	v0,s0,v0
80002920:	a0400000 	sb	zero,0(v0)
80002924:	1000ffe9 	b	800028cc <fopen__+0x50>
80002928:	26020001 	addiu	v0,s0,1

8000292c <fclose__>:
8000292c:	27bdffe8 	addiu	sp,sp,-24
80002930:	afbf0014 	sw	ra,20(sp)
80002934:	afb00010 	sw	s0,16(sp)
80002938:	2490ffff 	addiu	s0,a0,-1
8000293c:	2e020004 	sltiu	v0,s0,4
80002940:	10400016 	beqz	v0,8000299c <fclose__+0x70>
80002944:	3c028000 	lui	v0,0x8000
80002948:	24426198 	addiu	v0,v0,24984
8000294c:	02021021 	addu	v0,s0,v0
80002950:	90420000 	lbu	v0,0(v0)
80002954:	00000000 	nop
80002958:	10400003 	beqz	v0,80002968 <fclose__+0x3c>
8000295c:	3c048000 	lui	a0,0x8000
80002960:	1000000f 	b	800029a0 <fclose__+0x74>
80002964:	00001025 	move	v0,zero
80002968:	00101080 	sll	v0,s0,0x2
8000296c:	00501021 	addu	v0,v0,s0
80002970:	000210c0 	sll	v0,v0,0x3
80002974:	2484619c 	addiu	a0,a0,24988
80002978:	0c000862 	jal	80002188 <close_file>
8000297c:	00822021 	addu	a0,a0,v0
80002980:	3c028000 	lui	v0,0x8000
80002984:	24426198 	addiu	v0,v0,24984
80002988:	02028021 	addu	s0,s0,v0
8000298c:	24020001 	li	v0,1
80002990:	a2020000 	sb	v0,0(s0)
80002994:	10000002 	b	800029a0 <fclose__+0x74>
80002998:	24020001 	li	v0,1
8000299c:	00001025 	move	v0,zero
800029a0:	8fbf0014 	lw	ra,20(sp)
800029a4:	8fb00010 	lw	s0,16(sp)
800029a8:	03e00008 	jr	ra
800029ac:	27bd0018 	addiu	sp,sp,24

800029b0 <fread__>:
800029b0:	24c6ffff 	addiu	a2,a2,-1
800029b4:	2cc20004 	sltiu	v0,a2,4
800029b8:	10400017 	beqz	v0,80002a18 <fread__+0x68>
800029bc:	00000000 	nop
800029c0:	3c028000 	lui	v0,0x8000
800029c4:	24426198 	addiu	v0,v0,24984
800029c8:	00c21021 	addu	v0,a2,v0
800029cc:	90420000 	lbu	v0,0(v0)
800029d0:	00000000 	nop
800029d4:	10400003 	beqz	v0,800029e4 <fread__+0x34>
800029d8:	00001025 	move	v0,zero
800029dc:	03e00008 	jr	ra
800029e0:	00000000 	nop
800029e4:	27bdffe8 	addiu	sp,sp,-24
800029e8:	afbf0014 	sw	ra,20(sp)
800029ec:	00061080 	sll	v0,a2,0x2
800029f0:	00463021 	addu	a2,v0,a2
800029f4:	000630c0 	sll	a2,a2,0x3
800029f8:	3c028000 	lui	v0,0x8000
800029fc:	2442619c 	addiu	v0,v0,24988
80002a00:	0c00074e 	jal	80001d38 <read_file>
80002a04:	00463021 	addu	a2,v0,a2
80002a08:	8fbf0014 	lw	ra,20(sp)
80002a0c:	00000000 	nop
80002a10:	03e00008 	jr	ra
80002a14:	27bd0018 	addiu	sp,sp,24
80002a18:	03e00008 	jr	ra
80002a1c:	00001025 	move	v0,zero

80002a20 <fwrite__>:
80002a20:	24c6ffff 	addiu	a2,a2,-1
80002a24:	2cc20004 	sltiu	v0,a2,4
80002a28:	10400017 	beqz	v0,80002a88 <fwrite__+0x68>
80002a2c:	00000000 	nop
80002a30:	3c028000 	lui	v0,0x8000
80002a34:	24426198 	addiu	v0,v0,24984
80002a38:	00c21021 	addu	v0,a2,v0
80002a3c:	90420000 	lbu	v0,0(v0)
80002a40:	00000000 	nop
80002a44:	10400003 	beqz	v0,80002a54 <fwrite__+0x34>
80002a48:	00001025 	move	v0,zero
80002a4c:	03e00008 	jr	ra
80002a50:	00000000 	nop
80002a54:	27bdffe8 	addiu	sp,sp,-24
80002a58:	afbf0014 	sw	ra,20(sp)
80002a5c:	00061080 	sll	v0,a2,0x2
80002a60:	00463021 	addu	a2,v0,a2
80002a64:	000630c0 	sll	a2,a2,0x3
80002a68:	3c028000 	lui	v0,0x8000
80002a6c:	2442619c 	addiu	v0,v0,24988
80002a70:	0c000792 	jal	80001e48 <write_file>
80002a74:	00463021 	addu	a2,v0,a2
80002a78:	8fbf0014 	lw	ra,20(sp)
80002a7c:	00000000 	nop
80002a80:	03e00008 	jr	ra
80002a84:	27bd0018 	addiu	sp,sp,24
80002a88:	03e00008 	jr	ra
80002a8c:	00001025 	move	v0,zero

80002a90 <fseek__>:
80002a90:	2484ffff 	addiu	a0,a0,-1
80002a94:	2c820004 	sltiu	v0,a0,4
80002a98:	10400018 	beqz	v0,80002afc <fseek__+0x6c>
80002a9c:	00000000 	nop
80002aa0:	3c028000 	lui	v0,0x8000
80002aa4:	24426198 	addiu	v0,v0,24984
80002aa8:	00821021 	addu	v0,a0,v0
80002aac:	90420000 	lbu	v0,0(v0)
80002ab0:	00000000 	nop
80002ab4:	10400003 	beqz	v0,80002ac4 <fseek__+0x34>
80002ab8:	00001025 	move	v0,zero
80002abc:	03e00008 	jr	ra
80002ac0:	00000000 	nop
80002ac4:	27bdffe8 	addiu	sp,sp,-24
80002ac8:	afbf0014 	sw	ra,20(sp)
80002acc:	00041080 	sll	v0,a0,0x2
80002ad0:	00442021 	addu	a0,v0,a0
80002ad4:	000420c0 	sll	a0,a0,0x3
80002ad8:	30c600ff 	andi	a2,a2,0xff
80002adc:	3c028000 	lui	v0,0x8000
80002ae0:	2442619c 	addiu	v0,v0,24988
80002ae4:	0c0005b4 	jal	800016d0 <seek_file>
80002ae8:	00442021 	addu	a0,v0,a0
80002aec:	8fbf0014 	lw	ra,20(sp)
80002af0:	00000000 	nop
80002af4:	03e00008 	jr	ra
80002af8:	27bd0018 	addiu	sp,sp,24
80002afc:	03e00008 	jr	ra
80002b00:	00001025 	move	v0,zero

80002b04 <feof__>:
80002b04:	2484ffff 	addiu	a0,a0,-1
80002b08:	2c820004 	sltiu	v0,a0,4
80002b0c:	10400014 	beqz	v0,80002b60 <feof__+0x5c>
80002b10:	00000000 	nop
80002b14:	3c028000 	lui	v0,0x8000
80002b18:	24426198 	addiu	v0,v0,24984
80002b1c:	00821021 	addu	v0,a0,v0
80002b20:	90420000 	lbu	v0,0(v0)
80002b24:	00000000 	nop
80002b28:	1440000f 	bnez	v0,80002b68 <feof__+0x64>
80002b2c:	00000000 	nop
80002b30:	00041080 	sll	v0,a0,0x2
80002b34:	00442021 	addu	a0,v0,a0
80002b38:	000410c0 	sll	v0,a0,0x3
80002b3c:	3c048000 	lui	a0,0x8000
80002b40:	2484619c 	addiu	a0,a0,24988
80002b44:	00822021 	addu	a0,a0,v0
80002b48:	8c820020 	lw	v0,32(a0)
80002b4c:	8c830004 	lw	v1,4(a0)
80002b50:	00000000 	nop
80002b54:	0043102b 	sltu	v0,v0,v1
80002b58:	03e00008 	jr	ra
80002b5c:	38420001 	xori	v0,v0,0x1
80002b60:	03e00008 	jr	ra
80002b64:	24020001 	li	v0,1
80002b68:	03e00008 	jr	ra
80002b6c:	24020001 	li	v0,1

80002b70 <dir__>:
80002b70:	27bdffc8 	addiu	sp,sp,-56
80002b74:	afbf0034 	sw	ra,52(sp)
80002b78:	afb70030 	sw	s7,48(sp)
80002b7c:	afb6002c 	sw	s6,44(sp)
80002b80:	afb50028 	sw	s5,40(sp)
80002b84:	afb40024 	sw	s4,36(sp)
80002b88:	afb30020 	sw	s3,32(sp)
80002b8c:	afb2001c 	sw	s2,28(sp)
80002b90:	afb10018 	sw	s1,24(sp)
80002b94:	afb00014 	sw	s0,20(sp)
80002b98:	3c048000 	lui	a0,0x8000
80002b9c:	0c0005d0 	jal	80001740 <dget_first_sect>
80002ba0:	2484623c 	addiu	a0,a0,25148
80002ba4:	10400048 	beqz	v0,80002cc8 <dir__+0x158>
80002ba8:	241500e5 	li	s5,229
80002bac:	24140020 	li	s4,32
80002bb0:	3c168000 	lui	s6,0x8000
80002bb4:	10000041 	b	80002cbc <dir__+0x14c>
80002bb8:	26d6623c 	addiu	s6,s6,25148
80002bbc:	0c000b7c 	jal	80002df0 <_put_char>
80002bc0:	24040009 	li	a0,9
80002bc4:	10000004 	b	80002bd8 <dir__+0x68>
80002bc8:	26100020 	addiu	s0,s0,32
80002bcc:	0c000b7c 	jal	80002df0 <_put_char>
80002bd0:	24040009 	li	a0,9
80002bd4:	26100020 	addiu	s0,s0,32
80002bd8:	12130034 	beq	s0,s3,80002cac <dir__+0x13c>
80002bdc:	00000000 	nop
80002be0:	92040000 	lbu	a0,0(s0)
80002be4:	00000000 	nop
80002be8:	1080fffa 	beqz	a0,80002bd4 <dir__+0x64>
80002bec:	02009025 	move	s2,s0
80002bf0:	1095fff8 	beq	a0,s5,80002bd4 <dir__+0x64>
80002bf4:	00000000 	nop
80002bf8:	9202000b 	lbu	v0,11(s0)
80002bfc:	00000000 	nop
80002c00:	3042000c 	andi	v0,v0,0xc
80002c04:	1440fff3 	bnez	v0,80002bd4 <dir__+0x64>
80002c08:	00000000 	nop
80002c0c:	1094000c 	beq	a0,s4,80002c40 <dir__+0xd0>
80002c10:	00000000 	nop
80002c14:	0c000b7c 	jal	80002df0 <_put_char>
80002c18:	26170007 	addiu	s7,s0,7
80002c1c:	02008825 	move	s1,s0
80002c20:	92240001 	lbu	a0,1(s1)
80002c24:	00000000 	nop
80002c28:	10940005 	beq	a0,s4,80002c40 <dir__+0xd0>
80002c2c:	00000000 	nop
80002c30:	0c000b7c 	jal	80002df0 <_put_char>
80002c34:	26310001 	addiu	s1,s1,1
80002c38:	16f1fff9 	bne	s7,s1,80002c20 <dir__+0xb0>
80002c3c:	00000000 	nop
80002c40:	9242000b 	lbu	v0,11(s2)
80002c44:	00000000 	nop
80002c48:	30420010 	andi	v0,v0,0x10
80002c4c:	1440ffdb 	bnez	v0,80002bbc <dir__+0x4c>
80002c50:	00000000 	nop
80002c54:	0c000b7c 	jal	80002df0 <_put_char>
80002c58:	2404002e 	li	a0,46
80002c5c:	92440008 	lbu	a0,8(s2)
80002c60:	00000000 	nop
80002c64:	1094ffd9 	beq	a0,s4,80002bcc <dir__+0x5c>
80002c68:	00000000 	nop
80002c6c:	0c000b7c 	jal	80002df0 <_put_char>
80002c70:	00000000 	nop
80002c74:	92440009 	lbu	a0,9(s2)
80002c78:	00000000 	nop
80002c7c:	1094ffd3 	beq	a0,s4,80002bcc <dir__+0x5c>
80002c80:	00000000 	nop
80002c84:	0c000b7c 	jal	80002df0 <_put_char>
80002c88:	00000000 	nop
80002c8c:	9244000a 	lbu	a0,10(s2)
80002c90:	00000000 	nop
80002c94:	1094ffcd 	beq	a0,s4,80002bcc <dir__+0x5c>
80002c98:	00000000 	nop
80002c9c:	0c000b7c 	jal	80002df0 <_put_char>
80002ca0:	00000000 	nop
80002ca4:	1000ffc9 	b	80002bcc <dir__+0x5c>
80002ca8:	00000000 	nop
80002cac:	0c000592 	jal	80001648 <dget_next_sect>
80002cb0:	02c02025 	move	a0,s6
80002cb4:	10400004 	beqz	v0,80002cc8 <dir__+0x158>
80002cb8:	00000000 	nop
80002cbc:	24500004 	addiu	s0,v0,4
80002cc0:	1000ffc7 	b	80002be0 <dir__+0x70>
80002cc4:	24530204 	addiu	s3,v0,516
80002cc8:	0c000b7c 	jal	80002df0 <_put_char>
80002ccc:	2404000a 	li	a0,10
80002cd0:	8fbf0034 	lw	ra,52(sp)
80002cd4:	8fb70030 	lw	s7,48(sp)
80002cd8:	8fb6002c 	lw	s6,44(sp)
80002cdc:	8fb50028 	lw	s5,40(sp)
80002ce0:	8fb40024 	lw	s4,36(sp)
80002ce4:	8fb30020 	lw	s3,32(sp)
80002ce8:	8fb2001c 	lw	s2,28(sp)
80002cec:	8fb10018 	lw	s1,24(sp)
80002cf0:	8fb00014 	lw	s0,20(sp)
80002cf4:	03e00008 	jr	ra
80002cf8:	27bd0038 	addiu	sp,sp,56

80002cfc <_scroll_screen>:
80002cfc:	2482ffff 	addiu	v0,a0,-1
80002d00:	2c42001d 	sltiu	v0,v0,29
80002d04:	10400038 	beqz	v0,80002de8 <_scroll_screen+0xec>
80002d08:	3c03b000 	lui	v1,0xb000
80002d0c:	00041080 	sll	v0,a0,0x2
80002d10:	00441021 	addu	v0,v0,a0
80002d14:	00023940 	sll	a3,v0,0x5
80002d18:	24622000 	addiu	v0,v1,8192
80002d1c:	00e21021 	addu	v0,a3,v0
80002d20:	24633220 	addiu	v1,v1,12832
80002d24:	0043182b 	sltu	v1,v0,v1
80002d28:	10600029 	beqz	v1,80002dd0 <_scroll_screen+0xd4>
80002d2c:	00e04025 	move	t0,a3
80002d30:	3c06b000 	lui	a2,0xb000
80002d34:	24c63220 	addiu	a2,a2,12832
80002d38:	8c450000 	lw	a1,0(v0)
80002d3c:	00481823 	subu	v1,v0,t0
80002d40:	ac650000 	sw	a1,0(v1)
80002d44:	24420004 	addiu	v0,v0,4
80002d48:	0046182b 	sltu	v1,v0,a2
80002d4c:	1460fffa 	bnez	v1,80002d38 <_scroll_screen+0x3c>
80002d50:	2403fffc 	li	v1,-4
80002d54:	2402121f 	li	v0,4639
80002d58:	00471023 	subu	v0,v0,a3
80002d5c:	00431024 	and	v0,v0,v1
80002d60:	3c03b000 	lui	v1,0xb000
80002d64:	24652004 	addiu	a1,v1,8196
80002d68:	00451021 	addu	v0,v0,a1
80002d6c:	24633220 	addiu	v1,v1,12832
80002d70:	0043182b 	sltu	v1,v0,v1
80002d74:	10600008 	beqz	v1,80002d98 <_scroll_screen+0x9c>
80002d78:	00000000 	nop
80002d7c:	3c05b000 	lui	a1,0xb000
80002d80:	24a53220 	addiu	a1,a1,12832
80002d84:	ac400000 	sw	zero,0(v0)
80002d88:	24420004 	addiu	v0,v0,4
80002d8c:	0045182b 	sltu	v1,v0,a1
80002d90:	1460fffc 	bnez	v1,80002d84 <_scroll_screen+0x88>
80002d94:	00000000 	nop
80002d98:	3c02b000 	lui	v0,0xb000
80002d9c:	8c430004 	lw	v1,4(v0)
80002da0:	00041080 	sll	v0,a0,0x2
80002da4:	00442021 	addu	a0,v0,a0
80002da8:	000420c0 	sll	a0,a0,0x3
80002dac:	306207ff 	andi	v0,v1,0x7ff
80002db0:	0082102b 	sltu	v0,a0,v0
80002db4:	10400009 	beqz	v0,80002ddc <_scroll_screen+0xe0>
80002db8:	00000000 	nop
80002dbc:	00641823 	subu	v1,v1,a0
80002dc0:	3c02b000 	lui	v0,0xb000
80002dc4:	ac430004 	sw	v1,4(v0)
80002dc8:	03e00008 	jr	ra
80002dcc:	24020001 	li	v0,1
80002dd0:	3c02b000 	lui	v0,0xb000
80002dd4:	1000ffe9 	b	80002d7c <_scroll_screen+0x80>
80002dd8:	24422000 	addiu	v0,v0,8192
80002ddc:	2404f800 	li	a0,-2048
80002de0:	1000fff7 	b	80002dc0 <_scroll_screen+0xc4>
80002de4:	00641824 	and	v1,v1,a0
80002de8:	03e00008 	jr	ra
80002dec:	00001025 	move	v0,zero

80002df0 <_put_char>:
80002df0:	3c02b000 	lui	v0,0xb000
80002df4:	8c420004 	lw	v0,4(v0)
80002df8:	2403000a 	li	v1,10
80002dfc:	1083000d 	beq	a0,v1,80002e34 <_put_char+0x44>
80002e00:	24030009 	li	v1,9
80002e04:	1083001d 	beq	a0,v1,80002e7c <_put_char+0x8c>
80002e08:	24030008 	li	v1,8
80002e0c:	10830027 	beq	a0,v1,80002eac <_put_char+0xbc>
80002e10:	304307ff 	andi	v1,v0,0x7ff
80002e14:	00032880 	sll	a1,v1,0x2
80002e18:	3c03b000 	lui	v1,0xb000
80002e1c:	00651821 	addu	v1,v1,a1
80002e20:	3c053f00 	lui	a1,0x3f00
80002e24:	00852025 	or	a0,a0,a1
80002e28:	ac642000 	sw	a0,8192(v1)
80002e2c:	1000000b 	b	80002e5c <_put_char+0x6c>
80002e30:	24420001 	addiu	v0,v0,1
80002e34:	304307ff 	andi	v1,v0,0x7ff
80002e38:	2c640028 	sltiu	a0,v1,40
80002e3c:	14800005 	bnez	a0,80002e54 <_put_char+0x64>
80002e40:	00000000 	nop
80002e44:	2463ffd8 	addiu	v1,v1,-40
80002e48:	2c640028 	sltiu	a0,v1,40
80002e4c:	1080fffd 	beqz	a0,80002e44 <_put_char+0x54>
80002e50:	00000000 	nop
80002e54:	24420028 	addiu	v0,v0,40
80002e58:	00431023 	subu	v0,v0,v1
80002e5c:	3c03b000 	lui	v1,0xb000
80002e60:	ac620004 	sw	v0,4(v1)
80002e64:	304207ff 	andi	v0,v0,0x7ff
80002e68:	2c420488 	sltiu	v0,v0,1160
80002e6c:	10400029 	beqz	v0,80002f14 <_put_char+0x124>
80002e70:	24020001 	li	v0,1
80002e74:	03e00008 	jr	ra
80002e78:	00000000 	nop
80002e7c:	304307ff 	andi	v1,v0,0x7ff
80002e80:	00032080 	sll	a0,v1,0x2
80002e84:	3c03b000 	lui	v1,0xb000
80002e88:	00641821 	addu	v1,v1,a0
80002e8c:	24040009 	li	a0,9
80002e90:	ac642000 	sw	a0,8192(v1)
80002e94:	24420001 	addiu	v0,v0,1
80002e98:	30430003 	andi	v1,v0,0x3
80002e9c:	1460fffd 	bnez	v1,80002e94 <_put_char+0xa4>
80002ea0:	3c03b000 	lui	v1,0xb000
80002ea4:	1000ffef 	b	80002e64 <_put_char+0x74>
80002ea8:	ac620004 	sw	v0,4(v1)
80002eac:	304507ff 	andi	a1,v0,0x7ff
80002eb0:	00051880 	sll	v1,a1,0x2
80002eb4:	3c04b000 	lui	a0,0xb000
80002eb8:	24842000 	addiu	a0,a0,8192
80002ebc:	00641821 	addu	v1,v1,a0
80002ec0:	8c640000 	lw	a0,0(v1)
80002ec4:	00000000 	nop
80002ec8:	14800010 	bnez	a0,80002f0c <_put_char+0x11c>
80002ecc:	00000000 	nop
80002ed0:	10a0000e 	beqz	a1,80002f0c <_put_char+0x11c>
80002ed4:	00000000 	nop
80002ed8:	3c06b000 	lui	a2,0xb000
80002edc:	24c62000 	addiu	a2,a2,8192
80002ee0:	2442ffff 	addiu	v0,v0,-1
80002ee4:	304407ff 	andi	a0,v0,0x7ff
80002ee8:	00041880 	sll	v1,a0,0x2
80002eec:	00661821 	addu	v1,v1,a2
80002ef0:	8c650000 	lw	a1,0(v1)
80002ef4:	00000000 	nop
80002ef8:	14a00004 	bnez	a1,80002f0c <_put_char+0x11c>
80002efc:	00000000 	nop
80002f00:	1480fff8 	bnez	a0,80002ee4 <_put_char+0xf4>
80002f04:	2442ffff 	addiu	v0,v0,-1
80002f08:	24420001 	addiu	v0,v0,1
80002f0c:	1000ffd3 	b	80002e5c <_put_char+0x6c>
80002f10:	ac600000 	sw	zero,0(v1)
80002f14:	27bdffe8 	addiu	sp,sp,-24
80002f18:	afbf0014 	sw	ra,20(sp)
80002f1c:	0c000b3f 	jal	80002cfc <_scroll_screen>
80002f20:	24040001 	li	a0,1
80002f24:	24020001 	li	v0,1
80002f28:	8fbf0014 	lw	ra,20(sp)
80002f2c:	00000000 	nop
80002f30:	03e00008 	jr	ra
80002f34:	27bd0018 	addiu	sp,sp,24

80002f38 <kput_char>:
80002f38:	00052880 	sll	a1,a1,0x2
80002f3c:	3c02b000 	lui	v0,0xb000
80002f40:	00452821 	addu	a1,v0,a1
80002f44:	3c023f00 	lui	v0,0x3f00
80002f48:	00822025 	or	a0,a0,v0
80002f4c:	03e00008 	jr	ra
80002f50:	aca42000 	sw	a0,8192(a1)

80002f54 <kprintHex>:
80002f54:	27bdffe8 	addiu	sp,sp,-24
80002f58:	afbf0014 	sw	ra,20(sp)
80002f5c:	afb00010 	sw	s0,16(sp)
80002f60:	00808025 	move	s0,a0
80002f64:	00042102 	srl	a0,a0,0x4
80002f68:	2c82000a 	sltiu	v0,a0,10
80002f6c:	1040000d 	beqz	v0,80002fa4 <kprintHex+0x50>
80002f70:	00000000 	nop
80002f74:	0c000b7c 	jal	80002df0 <_put_char>
80002f78:	24840030 	addiu	a0,a0,48
80002f7c:	3210000f 	andi	s0,s0,0xf
80002f80:	2e02000a 	sltiu	v0,s0,10
80002f84:	1440000b 	bnez	v0,80002fb4 <kprintHex+0x60>
80002f88:	00000000 	nop
80002f8c:	0c000b7c 	jal	80002df0 <_put_char>
80002f90:	26040037 	addiu	a0,s0,55
80002f94:	8fbf0014 	lw	ra,20(sp)
80002f98:	8fb00010 	lw	s0,16(sp)
80002f9c:	03e00008 	jr	ra
80002fa0:	27bd0018 	addiu	sp,sp,24
80002fa4:	0c000b7c 	jal	80002df0 <_put_char>
80002fa8:	24840037 	addiu	a0,a0,55
80002fac:	1000fff4 	b	80002f80 <kprintHex+0x2c>
80002fb0:	3210000f 	andi	s0,s0,0xf
80002fb4:	0c000b7c 	jal	80002df0 <_put_char>
80002fb8:	26040030 	addiu	a0,s0,48
80002fbc:	1000fff5 	b	80002f94 <kprintHex+0x40>
80002fc0:	00000000 	nop

80002fc4 <kprintHex_long>:
80002fc4:	27bdffe8 	addiu	sp,sp,-24
80002fc8:	afbf0014 	sw	ra,20(sp)
80002fcc:	afb00010 	sw	s0,16(sp)
80002fd0:	00808025 	move	s0,a0
80002fd4:	0c000bd5 	jal	80002f54 <kprintHex>
80002fd8:	00042602 	srl	a0,a0,0x18
80002fdc:	00102402 	srl	a0,s0,0x10
80002fe0:	0c000bd5 	jal	80002f54 <kprintHex>
80002fe4:	308400ff 	andi	a0,a0,0xff
80002fe8:	00102202 	srl	a0,s0,0x8
80002fec:	0c000bd5 	jal	80002f54 <kprintHex>
80002ff0:	308400ff 	andi	a0,a0,0xff
80002ff4:	0c000bd5 	jal	80002f54 <kprintHex>
80002ff8:	320400ff 	andi	a0,s0,0xff
80002ffc:	8fbf0014 	lw	ra,20(sp)
80003000:	8fb00010 	lw	s0,16(sp)
80003004:	03e00008 	jr	ra
80003008:	27bd0018 	addiu	sp,sp,24

8000300c <kprintDec>:
8000300c:	27bdffe8 	addiu	sp,sp,-24
80003010:	afbf0014 	sw	ra,20(sp)
80003014:	afb00010 	sw	s0,16(sp)
80003018:	2c822710 	sltiu	v0,a0,10000
8000301c:	14400039 	bnez	v0,80003104 <kprintDec+0xf8>
80003020:	00808025 	move	s0,a0
80003024:	00001025 	move	v0,zero
80003028:	24420001 	addiu	v0,v0,1
8000302c:	2610d8f0 	addiu	s0,s0,-10000
80003030:	3210ffff 	andi	s0,s0,0xffff
80003034:	2e032710 	sltiu	v1,s0,10000
80003038:	1060fffb 	beqz	v1,80003028 <kprintDec+0x1c>
8000303c:	3042ffff 	andi	v0,v0,0xffff
80003040:	24440030 	addiu	a0,v0,48
80003044:	0c000b7c 	jal	80002df0 <_put_char>
80003048:	3084ffff 	andi	a0,a0,0xffff
8000304c:	2e0203e8 	sltiu	v0,s0,1000
80003050:	1440002e 	bnez	v0,8000310c <kprintDec+0x100>
80003054:	00000000 	nop
80003058:	00001025 	move	v0,zero
8000305c:	24420001 	addiu	v0,v0,1
80003060:	2610fc18 	addiu	s0,s0,-1000
80003064:	3210ffff 	andi	s0,s0,0xffff
80003068:	2e0303e8 	sltiu	v1,s0,1000
8000306c:	1060fffb 	beqz	v1,8000305c <kprintDec+0x50>
80003070:	3042ffff 	andi	v0,v0,0xffff
80003074:	24440030 	addiu	a0,v0,48
80003078:	0c000b7c 	jal	80002df0 <_put_char>
8000307c:	3084ffff 	andi	a0,a0,0xffff
80003080:	2e020064 	sltiu	v0,s0,100
80003084:	14400023 	bnez	v0,80003114 <kprintDec+0x108>
80003088:	00000000 	nop
8000308c:	00001025 	move	v0,zero
80003090:	24420001 	addiu	v0,v0,1
80003094:	2610ff9c 	addiu	s0,s0,-100
80003098:	3210ffff 	andi	s0,s0,0xffff
8000309c:	2e030064 	sltiu	v1,s0,100
800030a0:	1060fffb 	beqz	v1,80003090 <kprintDec+0x84>
800030a4:	3042ffff 	andi	v0,v0,0xffff
800030a8:	24440030 	addiu	a0,v0,48
800030ac:	0c000b7c 	jal	80002df0 <_put_char>
800030b0:	3084ffff 	andi	a0,a0,0xffff
800030b4:	2e02000a 	sltiu	v0,s0,10
800030b8:	14400018 	bnez	v0,8000311c <kprintDec+0x110>
800030bc:	00000000 	nop
800030c0:	00001025 	move	v0,zero
800030c4:	24420001 	addiu	v0,v0,1
800030c8:	2610fff6 	addiu	s0,s0,-10
800030cc:	3210ffff 	andi	s0,s0,0xffff
800030d0:	2e03000a 	sltiu	v1,s0,10
800030d4:	1060fffb 	beqz	v1,800030c4 <kprintDec+0xb8>
800030d8:	3042ffff 	andi	v0,v0,0xffff
800030dc:	24440030 	addiu	a0,v0,48
800030e0:	0c000b7c 	jal	80002df0 <_put_char>
800030e4:	3084ffff 	andi	a0,a0,0xffff
800030e8:	26040030 	addiu	a0,s0,48
800030ec:	0c000b7c 	jal	80002df0 <_put_char>
800030f0:	3084ffff 	andi	a0,a0,0xffff
800030f4:	8fbf0014 	lw	ra,20(sp)
800030f8:	8fb00010 	lw	s0,16(sp)
800030fc:	03e00008 	jr	ra
80003100:	27bd0018 	addiu	sp,sp,24
80003104:	1000ffce 	b	80003040 <kprintDec+0x34>
80003108:	00001025 	move	v0,zero
8000310c:	1000ffd9 	b	80003074 <kprintDec+0x68>
80003110:	00001025 	move	v0,zero
80003114:	1000ffe4 	b	800030a8 <kprintDec+0x9c>
80003118:	00001025 	move	v0,zero
8000311c:	1000ffef 	b	800030dc <kprintDec+0xd0>
80003120:	00001025 	move	v0,zero

80003124 <kputs>:
80003124:	27bdffe8 	addiu	sp,sp,-24
80003128:	afbf0014 	sw	ra,20(sp)
8000312c:	afb00010 	sw	s0,16(sp)
80003130:	00808025 	move	s0,a0
80003134:	90840000 	lbu	a0,0(a0)
80003138:	00000000 	nop
8000313c:	10800007 	beqz	a0,8000315c <kputs+0x38>
80003140:	00000000 	nop
80003144:	0c000b7c 	jal	80002df0 <_put_char>
80003148:	26100001 	addiu	s0,s0,1
8000314c:	92040000 	lbu	a0,0(s0)
80003150:	00000000 	nop
80003154:	1480fffb 	bnez	a0,80003144 <kputs+0x20>
80003158:	00000000 	nop
8000315c:	8fbf0014 	lw	ra,20(sp)
80003160:	8fb00010 	lw	s0,16(sp)
80003164:	03e00008 	jr	ra
80003168:	27bd0018 	addiu	sp,sp,24

8000316c <kstrcmp_short>:
8000316c:	10c00014 	beqz	a2,800031c0 <kstrcmp_short+0x54>
80003170:	00000000 	nop
80003174:	94830000 	lhu	v1,0(a0)
80003178:	94a20000 	lhu	v0,0(a1)
8000317c:	00000000 	nop
80003180:	14620011 	bne	v1,v0,800031c8 <kstrcmp_short+0x5c>
80003184:	24840002 	addiu	a0,a0,2
80003188:	24a50002 	addiu	a1,a1,2
8000318c:	00001825 	move	v1,zero
80003190:	24630001 	addiu	v1,v1,1
80003194:	10c30008 	beq	a2,v1,800031b8 <kstrcmp_short+0x4c>
80003198:	00000000 	nop
8000319c:	94880000 	lhu	t0,0(a0)
800031a0:	94a70000 	lhu	a3,0(a1)
800031a4:	24840002 	addiu	a0,a0,2
800031a8:	1107fff9 	beq	t0,a3,80003190 <kstrcmp_short+0x24>
800031ac:	24a50002 	addiu	a1,a1,2
800031b0:	03e00008 	jr	ra
800031b4:	24020001 	li	v0,1
800031b8:	03e00008 	jr	ra
800031bc:	00001025 	move	v0,zero
800031c0:	03e00008 	jr	ra
800031c4:	00c01025 	move	v0,a2
800031c8:	03e00008 	jr	ra
800031cc:	24020001 	li	v0,1

800031d0 <kstrcmp_char>:
800031d0:	10c00013 	beqz	a2,80003220 <kstrcmp_char+0x50>
800031d4:	00000000 	nop
800031d8:	90830000 	lbu	v1,0(a0)
800031dc:	90a20000 	lbu	v0,0(a1)
800031e0:	00000000 	nop
800031e4:	14620010 	bne	v1,v0,80003228 <kstrcmp_char+0x58>
800031e8:	24830001 	addiu	v1,a0,1
800031ec:	24a50001 	addiu	a1,a1,1
800031f0:	00863021 	addu	a2,a0,a2
800031f4:	10660008 	beq	v1,a2,80003218 <kstrcmp_char+0x48>
800031f8:	00000000 	nop
800031fc:	90680000 	lbu	t0,0(v1)
80003200:	90a70000 	lbu	a3,0(a1)
80003204:	24630001 	addiu	v1,v1,1
80003208:	1107fffa 	beq	t0,a3,800031f4 <kstrcmp_char+0x24>
8000320c:	24a50001 	addiu	a1,a1,1
80003210:	03e00008 	jr	ra
80003214:	24020001 	li	v0,1
80003218:	03e00008 	jr	ra
8000321c:	00001025 	move	v0,zero
80003220:	03e00008 	jr	ra
80003224:	00c01025 	move	v0,a2
80003228:	03e00008 	jr	ra
8000322c:	24020001 	li	v0,1

80003230 <kstrlen_short>:
80003230:	94820000 	lhu	v0,0(a0)
80003234:	00000000 	nop
80003238:	10400009 	beqz	v0,80003260 <kstrlen_short+0x30>
8000323c:	24840002 	addiu	a0,a0,2
80003240:	00001025 	move	v0,zero
80003244:	24840002 	addiu	a0,a0,2
80003248:	9483fffe 	lhu	v1,-2(a0)
8000324c:	00000000 	nop
80003250:	1460fffc 	bnez	v1,80003244 <kstrlen_short+0x14>
80003254:	24420001 	addiu	v0,v0,1
80003258:	03e00008 	jr	ra
8000325c:	00000000 	nop
80003260:	03e00008 	jr	ra
80003264:	00001025 	move	v0,zero

80003268 <kstrlen_char>:
80003268:	90820000 	lbu	v0,0(a0)
8000326c:	00000000 	nop
80003270:	10400009 	beqz	v0,80003298 <kstrlen_char+0x30>
80003274:	24840001 	addiu	a0,a0,1
80003278:	00001025 	move	v0,zero
8000327c:	24840001 	addiu	a0,a0,1
80003280:	9083ffff 	lbu	v1,-1(a0)
80003284:	00000000 	nop
80003288:	1460fffc 	bnez	v1,8000327c <kstrlen_char+0x14>
8000328c:	24420001 	addiu	v0,v0,1
80003290:	03e00008 	jr	ra
80003294:	00000000 	nop
80003298:	03e00008 	jr	ra
8000329c:	00001025 	move	v0,zero

800032a0 <kmemcpy>:
800032a0:	10c00008 	beqz	a2,800032c4 <kmemcpy+0x24>
800032a4:	00a01025 	move	v0,a1
800032a8:	00a62821 	addu	a1,a1,a2
800032ac:	90430000 	lbu	v1,0(v0)
800032b0:	00000000 	nop
800032b4:	a0830000 	sb	v1,0(a0)
800032b8:	24420001 	addiu	v0,v0,1
800032bc:	1445fffb 	bne	v0,a1,800032ac <kmemcpy+0xc>
800032c0:	24840001 	addiu	a0,a0,1
800032c4:	03e00008 	jr	ra
800032c8:	00000000 	nop

800032cc <kshort2char>:
800032cc:	10c00009 	beqz	a2,800032f4 <kshort2char+0x28>
800032d0:	00a01025 	move	v0,a1
800032d4:	00063040 	sll	a2,a2,0x1
800032d8:	00a62821 	addu	a1,a1,a2
800032dc:	94430000 	lhu	v1,0(v0)
800032e0:	00000000 	nop
800032e4:	a0830000 	sb	v1,0(a0)
800032e8:	24420002 	addiu	v0,v0,2
800032ec:	1445fffb 	bne	v0,a1,800032dc <kshort2char+0x10>
800032f0:	24840001 	addiu	a0,a0,1
800032f4:	03e00008 	jr	ra
800032f8:	00000000 	nop

800032fc <kchar2short>:
800032fc:	10c00009 	beqz	a2,80003324 <kchar2short+0x28>
80003300:	00801025 	move	v0,a0
80003304:	00063040 	sll	a2,a2,0x1
80003308:	00862021 	addu	a0,a0,a2
8000330c:	90a30000 	lbu	v1,0(a1)
80003310:	00000000 	nop
80003314:	a4430000 	sh	v1,0(v0)
80003318:	24420002 	addiu	v0,v0,2
8000331c:	1444fffb 	bne	v0,a0,8000330c <kchar2short+0x10>
80003320:	24a50001 	addiu	a1,a1,1
80003324:	03e00008 	jr	ra
80003328:	00000000 	nop

8000332c <kwaitSW2>:
8000332c:	27bdfff8 	addiu	sp,sp,-8
80003330:	3c03b000 	lui	v1,0xb000
80003334:	8c620008 	lw	v0,8(v1)
80003338:	00000000 	nop
8000333c:	afa20000 	sw	v0,0(sp)
80003340:	8fa20000 	lw	v0,0(sp)
80003344:	00000000 	nop
80003348:	30420004 	andi	v0,v0,0x4
8000334c:	1040fff9 	beqz	v0,80003334 <kwaitSW2+0x8>
80003350:	00000000 	nop
80003354:	03e00008 	jr	ra
80003358:	27bd0008 	addiu	sp,sp,8

8000335c <init_task>:
8000335c:	3c028000 	lui	v0,0x8000
80003360:	03e00008 	jr	ra
80003364:	a040659d 	sb	zero,26013(v0)

80003368 <unload__>:
80003368:	3c028000 	lui	v0,0x8000
8000336c:	9042659d 	lbu	v0,26013(v0)
80003370:	1040000f 	beqz	v0,800033b0 <unload__+0x48>
80003374:	00001825 	move	v1,zero
80003378:	3c02b000 	lui	v0,0xb000
8000337c:	40825000 	mtc0	v0,c0_entryhi
80003380:	40801000 	mtc0	zero,c0_entrylo0
80003384:	40801800 	mtc0	zero,c0_entrylo1
80003388:	40830000 	mtc0	v1,c0_index
8000338c:	42000002 	tlbwi
80003390:	24030001 	li	v1,1
80003394:	40825000 	mtc0	v0,c0_entryhi
80003398:	40801000 	mtc0	zero,c0_entrylo0
8000339c:	40801800 	mtc0	zero,c0_entrylo1
800033a0:	40830000 	mtc0	v1,c0_index
800033a4:	42000002 	tlbwi
800033a8:	3c028000 	lui	v0,0x8000
800033ac:	a040659d 	sb	zero,26013(v0)
800033b0:	03e00008 	jr	ra
800033b4:	24020001 	li	v0,1

800033b8 <load__>:
800033b8:	27bdfd68 	addiu	sp,sp,-664
800033bc:	afbf0294 	sw	ra,660(sp)
800033c0:	afbe0290 	sw	s8,656(sp)
800033c4:	afb7028c 	sw	s7,652(sp)
800033c8:	afb60288 	sw	s6,648(sp)
800033cc:	afb50284 	sw	s5,644(sp)
800033d0:	afb40280 	sw	s4,640(sp)
800033d4:	afb3027c 	sw	s3,636(sp)
800033d8:	afb20278 	sw	s2,632(sp)
800033dc:	afb10274 	sw	s1,628(sp)
800033e0:	afb00270 	sw	s0,624(sp)
800033e4:	00808025 	move	s0,a0
800033e8:	3c038000 	lui	v1,0x8000
800033ec:	2462659c 	addiu	v0,v1,26012
800033f0:	8c470010 	lw	a3,16(v0)
800033f4:	8c460014 	lw	a2,20(v0)
800033f8:	8c450018 	lw	a1,24(v0)
800033fc:	8c44001c 	lw	a0,28(v0)
80003400:	afa70010 	sw	a3,16(sp)
80003404:	afa60014 	sw	a2,20(sp)
80003408:	afa50018 	sw	a1,24(sp)
8000340c:	afa4001c 	sw	a0,28(sp)
80003410:	8c64659c 	lw	a0,26012(v1)
80003414:	8c450004 	lw	a1,4(v0)
80003418:	8c460008 	lw	a2,8(v0)
8000341c:	0c000cda 	jal	80003368 <unload__>
80003420:	8c47000c 	lw	a3,12(v0)
80003424:	10400095 	beqz	v0,8000367c <load__+0x2c4>
80003428:	27a50020 	addiu	a1,sp,32
8000342c:	0c0006df 	jal	80001b7c <open_file>
80003430:	02002025 	move	a0,s0
80003434:	10400092 	beqz	v0,80003680 <load__+0x2c8>
80003438:	2414ffff 	li	s4,-1
8000343c:	27a60020 	addiu	a2,sp,32
80003440:	24050034 	li	a1,52
80003444:	0c00074e 	jal	80001d38 <read_file>
80003448:	27a40048 	addiu	a0,sp,72
8000344c:	8fb40060 	lw	s4,96(sp)
80003450:	8fb00068 	lw	s0,104(sp)
80003454:	97b30078 	lhu	s3,120(sp)
80003458:	2605ffd8 	addiu	a1,s0,-40
8000345c:	00131080 	sll	v0,s3,0x2
80003460:	00531021 	addu	v0,v0,s3
80003464:	000210c0 	sll	v0,v0,0x3
80003468:	00003025 	move	a2,zero
8000346c:	00a22821 	addu	a1,a1,v0
80003470:	0c0005b4 	jal	800016d0 <seek_file>
80003474:	27a40020 	addiu	a0,sp,32
80003478:	27a60020 	addiu	a2,sp,32
8000347c:	24050028 	li	a1,40
80003480:	0c00074e 	jal	80001d38 <read_file>
80003484:	27a40048 	addiu	a0,sp,72
80003488:	8fb60058 	lw	s6,88(sp)
8000348c:	12600077 	beqz	s3,8000366c <load__+0x2b4>
80003490:	00009025 	move	s2,zero
80003494:	00008825 	move	s1,zero
80003498:	3c028000 	lui	v0,0x8000
8000349c:	24426594 	addiu	v0,v0,26004
800034a0:	afa20258 	sw	v0,600(sp)
800034a4:	3c028000 	lui	v0,0x8000
800034a8:	2442658c 	addiu	v0,v0,25996
800034ac:	10000013 	b	800034fc <load__+0x144>
800034b0:	afa2025c 	sw	v0,604(sp)
800034b4:	8fa5025c 	lw	a1,604(sp)
800034b8:	0c000c74 	jal	800031d0 <kstrcmp_char>
800034bc:	27a40248 	addiu	a0,sp,584
800034c0:	14400009 	bnez	v0,800034e8 <load__+0x130>
800034c4:	24020003 	li	v0,3
800034c8:	36520002 	ori	s2,s2,0x2
800034cc:	8fa20054 	lw	v0,84(sp)
800034d0:	afa20260 	sw	v0,608(sp)
800034d4:	8fa20058 	lw	v0,88(sp)
800034d8:	afa20268 	sw	v0,616(sp)
800034dc:	8fa2005c 	lw	v0,92(sp)
800034e0:	afa20264 	sw	v0,612(sp)
800034e4:	24020003 	li	v0,3
800034e8:	12420020 	beq	s2,v0,8000356c <load__+0x1b4>
800034ec:	00000000 	nop
800034f0:	26310001 	addiu	s1,s1,1
800034f4:	1271005d 	beq	s3,s1,8000366c <load__+0x2b4>
800034f8:	26100028 	addiu	s0,s0,40
800034fc:	00003025 	move	a2,zero
80003500:	02002825 	move	a1,s0
80003504:	0c0005b4 	jal	800016d0 <seek_file>
80003508:	27a40020 	addiu	a0,sp,32
8000350c:	27a60020 	addiu	a2,sp,32
80003510:	24050028 	li	a1,40
80003514:	0c00074e 	jal	80001d38 <read_file>
80003518:	27a40048 	addiu	a0,sp,72
8000351c:	00003025 	move	a2,zero
80003520:	8fa50048 	lw	a1,72(sp)
80003524:	02c52821 	addu	a1,s6,a1
80003528:	0c0005b4 	jal	800016d0 <seek_file>
8000352c:	27a40020 	addiu	a0,sp,32
80003530:	27a60020 	addiu	a2,sp,32
80003534:	24050006 	li	a1,6
80003538:	0c00074e 	jal	80001d38 <read_file>
8000353c:	27a40248 	addiu	a0,sp,584
80003540:	24060006 	li	a2,6
80003544:	8fa50258 	lw	a1,600(sp)
80003548:	0c000c74 	jal	800031d0 <kstrcmp_char>
8000354c:	27a40248 	addiu	a0,sp,584
80003550:	1440ffd8 	bnez	v0,800034b4 <load__+0xfc>
80003554:	24060006 	li	a2,6
80003558:	8fb50054 	lw	s5,84(sp)
8000355c:	8fb70058 	lw	s7,88(sp)
80003560:	8fbe005c 	lw	s8,92(sp)
80003564:	1000ffdf 	b	800034e4 <load__+0x12c>
80003568:	36520001 	ori	s2,s2,0x1
8000356c:	1271003f 	beq	s3,s1,8000366c <load__+0x2b4>
80003570:	2411e000 	li	s1,-8192
80003574:	02b19024 	and	s2,s5,s1
80003578:	36520002 	ori	s2,s2,0x2
8000357c:	3c100080 	lui	s0,0x80
80003580:	26020006 	addiu	v0,s0,6
80003584:	26030046 	addiu	v1,s0,70
80003588:	00009825 	move	s3,zero
8000358c:	40925000 	mtc0	s2,c0_entryhi
80003590:	40821000 	mtc0	v0,c0_entrylo0
80003594:	40831800 	mtc0	v1,c0_entrylo1
80003598:	40930000 	mtc0	s3,c0_index
8000359c:	42000002 	tlbwi
800035a0:	00003025 	move	a2,zero
800035a4:	02e02825 	move	a1,s7
800035a8:	0c0005b4 	jal	800016d0 <seek_file>
800035ac:	27a40020 	addiu	a0,sp,32
800035b0:	27a60020 	addiu	a2,sp,32
800035b4:	03c02825 	move	a1,s8
800035b8:	0c00074e 	jal	80001d38 <read_file>
800035bc:	02a02025 	move	a0,s5
800035c0:	26020002 	addiu	v0,s0,2
800035c4:	26030042 	addiu	v1,s0,66
800035c8:	40925000 	mtc0	s2,c0_entryhi
800035cc:	40821000 	mtc0	v0,c0_entrylo0
800035d0:	40831800 	mtc0	v1,c0_entrylo1
800035d4:	40930000 	mtc0	s3,c0_index
800035d8:	42000002 	tlbwi
800035dc:	8fb30260 	lw	s3,608(sp)
800035e0:	02718824 	and	s1,s3,s1
800035e4:	36310002 	ori	s1,s1,0x2
800035e8:	26020086 	addiu	v0,s0,134
800035ec:	261000c6 	addiu	s0,s0,198
800035f0:	24120001 	li	s2,1
800035f4:	40915000 	mtc0	s1,c0_entryhi
800035f8:	40821000 	mtc0	v0,c0_entrylo0
800035fc:	40901800 	mtc0	s0,c0_entrylo1
80003600:	40920000 	mtc0	s2,c0_index
80003604:	42000002 	tlbwi
80003608:	00003025 	move	a2,zero
8000360c:	8fb10268 	lw	s1,616(sp)
80003610:	02202825 	move	a1,s1
80003614:	0c0005b4 	jal	800016d0 <seek_file>
80003618:	27a40020 	addiu	a0,sp,32
8000361c:	27a60020 	addiu	a2,sp,32
80003620:	8fb00264 	lw	s0,612(sp)
80003624:	02002825 	move	a1,s0
80003628:	0c00074e 	jal	80001d38 <read_file>
8000362c:	02602025 	move	a0,s3
80003630:	0c000862 	jal	80002188 <close_file>
80003634:	27a40020 	addiu	a0,sp,32
80003638:	3c028000 	lui	v0,0x8000
8000363c:	24030002 	li	v1,2
80003640:	a043659c 	sb	v1,26012(v0)
80003644:	2442659c 	addiu	v0,v0,26012
80003648:	a0520001 	sb	s2,1(v0)
8000364c:	ac540004 	sw	s4,4(v0)
80003650:	ac550008 	sw	s5,8(v0)
80003654:	ac5e000c 	sw	s8,12(v0)
80003658:	ac570010 	sw	s7,16(v0)
8000365c:	ac530014 	sw	s3,20(v0)
80003660:	ac500018 	sw	s0,24(v0)
80003664:	10000006 	b	80003680 <load__+0x2c8>
80003668:	ac51001c 	sw	s1,28(v0)
8000366c:	0c000862 	jal	80002188 <close_file>
80003670:	27a40020 	addiu	a0,sp,32
80003674:	10000002 	b	80003680 <load__+0x2c8>
80003678:	2414ffff 	li	s4,-1
8000367c:	2414ffff 	li	s4,-1
80003680:	02801025 	move	v0,s4
80003684:	8fbf0294 	lw	ra,660(sp)
80003688:	8fbe0290 	lw	s8,656(sp)
8000368c:	8fb7028c 	lw	s7,652(sp)
80003690:	8fb60288 	lw	s6,648(sp)
80003694:	8fb50284 	lw	s5,644(sp)
80003698:	8fb40280 	lw	s4,640(sp)
8000369c:	8fb3027c 	lw	s3,636(sp)
800036a0:	8fb20278 	lw	s2,632(sp)
800036a4:	8fb10274 	lw	s1,628(sp)
800036a8:	8fb00270 	lw	s0,624(sp)
800036ac:	03e00008 	jr	ra
800036b0:	27bd0298 	addiu	sp,sp,664

800036b4 <ascii2hex>:
800036b4:	2483ffd0 	addiu	v1,a0,-48
800036b8:	3063ffff 	andi	v1,v1,0xffff
800036bc:	2c63000a 	sltiu	v1,v1,10
800036c0:	1460000d 	bnez	v1,800036f8 <ascii2hex+0x44>
800036c4:	00000000 	nop
800036c8:	2482ff9f 	addiu	v0,a0,-97
800036cc:	3042ffff 	andi	v0,v0,0xffff
800036d0:	2c420006 	sltiu	v0,v0,6
800036d4:	1440000a 	bnez	v0,80003700 <ascii2hex+0x4c>
800036d8:	00000000 	nop
800036dc:	2482ffbf 	addiu	v0,a0,-65
800036e0:	3042ffff 	andi	v0,v0,0xffff
800036e4:	2c420006 	sltiu	v0,v0,6
800036e8:	10400007 	beqz	v0,80003708 <ascii2hex+0x54>
800036ec:	00000000 	nop
800036f0:	03e00008 	jr	ra
800036f4:	2482ffc9 	addiu	v0,a0,-55
800036f8:	03e00008 	jr	ra
800036fc:	2482ffd0 	addiu	v0,a0,-48
80003700:	03e00008 	jr	ra
80003704:	2482ffa9 	addiu	v0,a0,-87
80003708:	03e00008 	jr	ra
8000370c:	00001025 	move	v0,zero

80003710 <init_input>:
80003710:	27bdffe8 	addiu	sp,sp,-24
80003714:	afbf0014 	sw	ra,20(sp)
80003718:	3c028000 	lui	v0,0x8000
8000371c:	ac4065c8 	sw	zero,26056(v0)
80003720:	3c038000 	lui	v1,0x8000
80003724:	246265c0 	addiu	v0,v1,26048
80003728:	a4400006 	sh	zero,6(v0)
8000372c:	a4400004 	sh	zero,4(v0)
80003730:	a4400002 	sh	zero,2(v0)
80003734:	a46065c0 	sh	zero,26048(v1)
80003738:	3c028000 	lui	v0,0x8000
8000373c:	ac4065bc 	sw	zero,26044(v0)
80003740:	24050488 	li	a1,1160
80003744:	0c000bce 	jal	80002f38 <kput_char>
80003748:	2404008f 	li	a0,143
8000374c:	8fbf0014 	lw	ra,20(sp)
80003750:	00000000 	nop
80003754:	03e00008 	jr	ra
80003758:	27bd0018 	addiu	sp,sp,24

8000375c <input_key>:
8000375c:	27bdffd8 	addiu	sp,sp,-40
80003760:	afbf0024 	sw	ra,36(sp)
80003764:	afb30020 	sw	s3,32(sp)
80003768:	afb2001c 	sw	s2,28(sp)
8000376c:	afb10018 	sw	s1,24(sp)
80003770:	24020012 	li	v0,18
80003774:	10a2003f 	beq	a1,v0,80003874 <input_key+0x118>
80003778:	afb00014 	sw	s0,20(sp)
8000377c:	10800071 	beqz	a0,80003944 <input_key+0x1e8>
80003780:	3c028000 	lui	v0,0x8000
80003784:	90426076 	lbu	v0,24694(v0)
80003788:	00000000 	nop
8000378c:	30420004 	andi	v0,v0,0x4
80003790:	14400006 	bnez	v0,800037ac <input_key+0x50>
80003794:	3c028000 	lui	v0,0x8000
80003798:	9042607f 	lbu	v0,24703(v0)
8000379c:	00000000 	nop
800037a0:	30420002 	andi	v0,v0,0x2
800037a4:	10400061 	beqz	v0,8000392c <input_key+0x1d0>
800037a8:	3c028000 	lui	v0,0x8000
800037ac:	00052840 	sll	a1,a1,0x1
800037b0:	3c028000 	lui	v0,0x8000
800037b4:	244265cc 	addiu	v0,v0,26060
800037b8:	00a22821 	addu	a1,a1,v0
800037bc:	94b00000 	lhu	s0,0(a1)
800037c0:	3c028000 	lui	v0,0x8000
800037c4:	8c4265c8 	lw	v0,26056(v0)
800037c8:	00000000 	nop
800037cc:	104000dd 	beqz	v0,80003b44 <input_key+0x3e8>
800037d0:	2602ffd0 	addiu	v0,s0,-48
800037d4:	3042ffff 	andi	v0,v0,0xffff
800037d8:	2c42000a 	sltiu	v0,v0,10
800037dc:	14400072 	bnez	v0,800039a8 <input_key+0x24c>
800037e0:	2602ff9f 	addiu	v0,s0,-97
800037e4:	3042ffff 	andi	v0,v0,0xffff
800037e8:	2c420006 	sltiu	v0,v0,6
800037ec:	14400072 	bnez	v0,800039b8 <input_key+0x25c>
800037f0:	2602ffbf 	addiu	v0,s0,-65
800037f4:	3042ffff 	andi	v0,v0,0xffff
800037f8:	2c420006 	sltiu	v0,v0,6
800037fc:	14400071 	bnez	v0,800039c4 <input_key+0x268>
80003800:	3c028000 	lui	v0,0x8000
80003804:	2402000a 	li	v0,10
80003808:	1202009a 	beq	s0,v0,80003a74 <input_key+0x318>
8000380c:	24020008 	li	v0,8
80003810:	160200cc 	bne	s0,v0,80003b44 <input_key+0x3e8>
80003814:	3c028000 	lui	v0,0x8000
80003818:	8c4265bc 	lw	v0,26044(v0)
8000381c:	00000000 	nop
80003820:	104000c8 	beqz	v0,80003b44 <input_key+0x3e8>
80003824:	24030004 	li	v1,4
80003828:	104300c1 	beq	v0,v1,80003b30 <input_key+0x3d4>
8000382c:	2405048d 	li	a1,1165
80003830:	3c108000 	lui	s0,0x8000
80003834:	8e0565bc 	lw	a1,26044(s0)
80003838:	00000000 	nop
8000383c:	24a50488 	addiu	a1,a1,1160
80003840:	0c000bce 	jal	80002f38 <kput_char>
80003844:	00002025 	move	a0,zero
80003848:	8e0265bc 	lw	v0,26044(s0)
8000384c:	00000000 	nop
80003850:	2442ffff 	addiu	v0,v0,-1
80003854:	ae0265bc 	sw	v0,26044(s0)
80003858:	00021040 	sll	v0,v0,0x1
8000385c:	3c038000 	lui	v1,0x8000
80003860:	246365c0 	addiu	v1,v1,26048
80003864:	00431021 	addu	v0,v0,v1
80003868:	a4400000 	sh	zero,0(v0)
8000386c:	100000b5 	b	80003b44 <input_key+0x3e8>
80003870:	3410ffff 	li	s0,0xffff
80003874:	3c028000 	lui	v0,0x8000
80003878:	90426076 	lbu	v0,24694(v0)
8000387c:	00000000 	nop
80003880:	30420010 	andi	v0,v0,0x10
80003884:	1040ffbd 	beqz	v0,8000377c <input_key+0x20>
80003888:	3c028000 	lui	v0,0x8000
8000388c:	8c4265c8 	lw	v0,26056(v0)
80003890:	00000000 	nop
80003894:	14400008 	bnez	v0,800038b8 <input_key+0x15c>
80003898:	3c028000 	lui	v0,0x8000
8000389c:	24030001 	li	v1,1
800038a0:	ac4365c8 	sw	v1,26056(v0)
800038a4:	24050488 	li	a1,1160
800038a8:	0c000bce 	jal	80002f38 <kput_char>
800038ac:	24040090 	li	a0,144
800038b0:	100000a4 	b	80003b44 <input_key+0x3e8>
800038b4:	3410ffff 	li	s0,0xffff
800038b8:	ac4065c8 	sw	zero,26056(v0)
800038bc:	3c038000 	lui	v1,0x8000
800038c0:	246265c0 	addiu	v0,v1,26048
800038c4:	a4400006 	sh	zero,6(v0)
800038c8:	a4400004 	sh	zero,4(v0)
800038cc:	a4400002 	sh	zero,2(v0)
800038d0:	a46065c0 	sh	zero,26048(v1)
800038d4:	3c028000 	lui	v0,0x8000
800038d8:	ac4065bc 	sw	zero,26044(v0)
800038dc:	24050488 	li	a1,1160
800038e0:	0c000bce 	jal	80002f38 <kput_char>
800038e4:	2404008f 	li	a0,143
800038e8:	24050489 	li	a1,1161
800038ec:	0c000bce 	jal	80002f38 <kput_char>
800038f0:	00002025 	move	a0,zero
800038f4:	2405048a 	li	a1,1162
800038f8:	0c000bce 	jal	80002f38 <kput_char>
800038fc:	00002025 	move	a0,zero
80003900:	2405048b 	li	a1,1163
80003904:	0c000bce 	jal	80002f38 <kput_char>
80003908:	00002025 	move	a0,zero
8000390c:	2405048c 	li	a1,1164
80003910:	0c000bce 	jal	80002f38 <kput_char>
80003914:	00002025 	move	a0,zero
80003918:	2405048d 	li	a1,1165
8000391c:	0c000bce 	jal	80002f38 <kput_char>
80003920:	00002025 	move	a0,zero
80003924:	10000087 	b	80003b44 <input_key+0x3e8>
80003928:	3410ffff 	li	s0,0xffff
8000392c:	00052840 	sll	a1,a1,0x1
80003930:	244266cc 	addiu	v0,v0,26316
80003934:	00a22821 	addu	a1,a1,v0
80003938:	94b00000 	lhu	s0,0(a1)
8000393c:	1000ffa1 	b	800037c4 <input_key+0x68>
80003940:	3c028000 	lui	v0,0x8000
80003944:	90426076 	lbu	v0,24694(v0)
80003948:	00000000 	nop
8000394c:	30420004 	andi	v0,v0,0x4
80003950:	14400007 	bnez	v0,80003970 <input_key+0x214>
80003954:	00000000 	nop
80003958:	3c028000 	lui	v0,0x8000
8000395c:	9042607f 	lbu	v0,24703(v0)
80003960:	00000000 	nop
80003964:	30420002 	andi	v0,v0,0x2
80003968:	10400008 	beqz	v0,8000398c <input_key+0x230>
8000396c:	00000000 	nop
80003970:	00052840 	sll	a1,a1,0x1
80003974:	3c028000 	lui	v0,0x8000
80003978:	244266cc 	addiu	v0,v0,26316
8000397c:	00a22821 	addu	a1,a1,v0
80003980:	94b00000 	lhu	s0,0(a1)
80003984:	1000ff8f 	b	800037c4 <input_key+0x68>
80003988:	3c028000 	lui	v0,0x8000
8000398c:	00052840 	sll	a1,a1,0x1
80003990:	3c028000 	lui	v0,0x8000
80003994:	244265cc 	addiu	v0,v0,26060
80003998:	00a22821 	addu	a1,a1,v0
8000399c:	94b00000 	lhu	s0,0(a1)
800039a0:	1000ff88 	b	800037c4 <input_key+0x68>
800039a4:	3c028000 	lui	v0,0x8000
800039a8:	3042ffff 	andi	v0,v0,0xffff
800039ac:	2c420006 	sltiu	v0,v0,6
800039b0:	10400004 	beqz	v0,800039c4 <input_key+0x268>
800039b4:	3c028000 	lui	v0,0x8000
800039b8:	2610ffe0 	addiu	s0,s0,-32
800039bc:	3210ffff 	andi	s0,s0,0xffff
800039c0:	3c028000 	lui	v0,0x8000
800039c4:	8c4565bc 	lw	a1,26044(v0)
800039c8:	00000000 	nop
800039cc:	2ca20004 	sltiu	v0,a1,4
800039d0:	1040005b 	beqz	v0,80003b40 <input_key+0x3e4>
800039d4:	00051040 	sll	v0,a1,0x1
800039d8:	3c038000 	lui	v1,0x8000
800039dc:	246365c0 	addiu	v1,v1,26048
800039e0:	00431021 	addu	v0,v0,v1
800039e4:	a4500000 	sh	s0,0(v0)
800039e8:	3c118000 	lui	s1,0x8000
800039ec:	24a20001 	addiu	v0,a1,1
800039f0:	ae2265bc 	sw	v0,26044(s1)
800039f4:	24a50489 	addiu	a1,a1,1161
800039f8:	0c000bce 	jal	80002f38 <kput_char>
800039fc:	02002025 	move	a0,s0
80003a00:	8e2365bc 	lw	v1,26044(s1)
80003a04:	24020004 	li	v0,4
80003a08:	10620003 	beq	v1,v0,80003a18 <input_key+0x2bc>
80003a0c:	3c118000 	lui	s1,0x8000
80003a10:	1000004c 	b	80003b44 <input_key+0x3e8>
80003a14:	3410ffff 	li	s0,0xffff
80003a18:	962465c0 	lhu	a0,26048(s1)
80003a1c:	0c000dad 	jal	800036b4 <ascii2hex>
80003a20:	263165c0 	addiu	s1,s1,26048
80003a24:	96240002 	lhu	a0,2(s1)
80003a28:	0c000dad 	jal	800036b4 <ascii2hex>
80003a2c:	00408025 	move	s0,v0
80003a30:	00108300 	sll	s0,s0,0xc
80003a34:	00021200 	sll	v0,v0,0x8
80003a38:	02028025 	or	s0,s0,v0
80003a3c:	96240004 	lhu	a0,4(s1)
80003a40:	0c000dad 	jal	800036b4 <ascii2hex>
80003a44:	3210ffff 	andi	s0,s0,0xffff
80003a48:	96240006 	lhu	a0,6(s1)
80003a4c:	0c000dad 	jal	800036b4 <ascii2hex>
80003a50:	00409025 	move	s2,v0
80003a54:	00129100 	sll	s2,s2,0x4
80003a58:	02021025 	or	v0,s0,v0
80003a5c:	02421025 	or	v0,s2,v0
80003a60:	2405048d 	li	a1,1165
80003a64:	0c000bce 	jal	80002f38 <kput_char>
80003a68:	3044ffff 	andi	a0,v0,0xffff
80003a6c:	10000035 	b	80003b44 <input_key+0x3e8>
80003a70:	3410ffff 	li	s0,0xffff
80003a74:	3c028000 	lui	v0,0x8000
80003a78:	8c4365bc 	lw	v1,26044(v0)
80003a7c:	24020004 	li	v0,4
80003a80:	14620030 	bne	v1,v0,80003b44 <input_key+0x3e8>
80003a84:	3c138000 	lui	s3,0x8000
80003a88:	966465c0 	lhu	a0,26048(s3)
80003a8c:	0c000dad 	jal	800036b4 <ascii2hex>
80003a90:	267165c0 	addiu	s1,s3,26048
80003a94:	96240002 	lhu	a0,2(s1)
80003a98:	0c000dad 	jal	800036b4 <ascii2hex>
80003a9c:	00408025 	move	s0,v0
80003aa0:	00108300 	sll	s0,s0,0xc
80003aa4:	00021200 	sll	v0,v0,0x8
80003aa8:	02028025 	or	s0,s0,v0
80003aac:	96240004 	lhu	a0,4(s1)
80003ab0:	0c000dad 	jal	800036b4 <ascii2hex>
80003ab4:	3210ffff 	andi	s0,s0,0xffff
80003ab8:	96240006 	lhu	a0,6(s1)
80003abc:	0c000dad 	jal	800036b4 <ascii2hex>
80003ac0:	00409025 	move	s2,v0
80003ac4:	00129100 	sll	s2,s2,0x4
80003ac8:	02028025 	or	s0,s0,v0
80003acc:	02508025 	or	s0,s2,s0
80003ad0:	3210ffff 	andi	s0,s0,0xffff
80003ad4:	3c028000 	lui	v0,0x8000
80003ad8:	ac4065bc 	sw	zero,26044(v0)
80003adc:	a6200006 	sh	zero,6(s1)
80003ae0:	a6200004 	sh	zero,4(s1)
80003ae4:	a6200002 	sh	zero,2(s1)
80003ae8:	a66065c0 	sh	zero,26048(s3)
80003aec:	24050489 	li	a1,1161
80003af0:	0c000bce 	jal	80002f38 <kput_char>
80003af4:	00002025 	move	a0,zero
80003af8:	2405048a 	li	a1,1162
80003afc:	0c000bce 	jal	80002f38 <kput_char>
80003b00:	00002025 	move	a0,zero
80003b04:	2405048b 	li	a1,1163
80003b08:	0c000bce 	jal	80002f38 <kput_char>
80003b0c:	00002025 	move	a0,zero
80003b10:	2405048c 	li	a1,1164
80003b14:	0c000bce 	jal	80002f38 <kput_char>
80003b18:	00002025 	move	a0,zero
80003b1c:	2405048d 	li	a1,1165
80003b20:	0c000bce 	jal	80002f38 <kput_char>
80003b24:	00002025 	move	a0,zero
80003b28:	10000007 	b	80003b48 <input_key+0x3ec>
80003b2c:	02001025 	move	v0,s0
80003b30:	0c000bce 	jal	80002f38 <kput_char>
80003b34:	00002025 	move	a0,zero
80003b38:	1000ff3e 	b	80003834 <input_key+0xd8>
80003b3c:	3c108000 	lui	s0,0x8000
80003b40:	3410ffff 	li	s0,0xffff
80003b44:	02001025 	move	v0,s0
80003b48:	8fbf0024 	lw	ra,36(sp)
80003b4c:	8fb30020 	lw	s3,32(sp)
80003b50:	8fb2001c 	lw	s2,28(sp)
80003b54:	8fb10018 	lw	s1,24(sp)
80003b58:	8fb00014 	lw	s0,20(sp)
80003b5c:	03e00008 	jr	ra
80003b60:	27bd0028 	addiu	sp,sp,40
