
os.bin:     file format elf32-littlemips


Disassembly of section .text:

80000000 <_ftext>:
	...

80000180 <exc_start>:
80000180:	27bdff84 	addiu	sp,sp,-124
80000184:	1000001e 	b	80000200 <save_all>
80000188:	00000000 	nop

8000018c <save_all_return>:
8000018c:	40046000 	mfc0	a0,c0_status
80000190:	40056800 	mfc0	a1,c0_cause
80000194:	40067000 	mfc0	a2,c0_epc
80000198:	03a03825 	move	a3,sp
8000019c:	27bdfff0 	addiu	sp,sp,-16
800001a0:	0c0003da 	jal	80000f68 <handle_exception>
800001a4:	00000000 	nop
800001a8:	27bd0010 	addiu	sp,sp,16
800001ac:	10000031 	b	80000274 <restore_all>
800001b0:	00000000 	nop
	...

80000200 <save_all>:
80000200:	afa20068 	sw	v0,104(sp)
80000204:	afa30064 	sw	v1,100(sp)
80000208:	afa40060 	sw	a0,96(sp)
8000020c:	afa5005c 	sw	a1,92(sp)
80000210:	afa60058 	sw	a2,88(sp)
80000214:	afa70054 	sw	a3,84(sp)
80000218:	afa80050 	sw	t0,80(sp)
8000021c:	afa9004c 	sw	t1,76(sp)
80000220:	afaa0048 	sw	t2,72(sp)
80000224:	afab0044 	sw	t3,68(sp)
80000228:	afac0040 	sw	t4,64(sp)
8000022c:	afad003c 	sw	t5,60(sp)
80000230:	afae0038 	sw	t6,56(sp)
80000234:	afaf0034 	sw	t7,52(sp)
80000238:	afb00030 	sw	s0,48(sp)
8000023c:	afb1002c 	sw	s1,44(sp)
80000240:	afb20028 	sw	s2,40(sp)
80000244:	afb30024 	sw	s3,36(sp)
80000248:	afb40020 	sw	s4,32(sp)
8000024c:	afb5001c 	sw	s5,28(sp)
80000250:	afb60018 	sw	s6,24(sp)
80000254:	afb70014 	sw	s7,20(sp)
80000258:	afb80010 	sw	t8,16(sp)
8000025c:	afb9000c 	sw	t9,12(sp)
80000260:	afbc0008 	sw	gp,8(sp)
80000264:	afbe0004 	sw	s8,4(sp)
80000268:	afbf0000 	sw	ra,0(sp)
8000026c:	1000ffc7 	b	8000018c <save_all_return>
80000270:	00000000 	nop

80000274 <restore_all>:
80000274:	8fa20068 	lw	v0,104(sp)
80000278:	8fa30064 	lw	v1,100(sp)
8000027c:	8fa40060 	lw	a0,96(sp)
80000280:	8fa5005c 	lw	a1,92(sp)
80000284:	8fa60058 	lw	a2,88(sp)
80000288:	8fa70054 	lw	a3,84(sp)
8000028c:	8fa80050 	lw	t0,80(sp)
80000290:	8fa9004c 	lw	t1,76(sp)
80000294:	8faa0048 	lw	t2,72(sp)
80000298:	8fab0044 	lw	t3,68(sp)
8000029c:	8fac0040 	lw	t4,64(sp)
800002a0:	8fad003c 	lw	t5,60(sp)
800002a4:	8fae0038 	lw	t6,56(sp)
800002a8:	8faf0034 	lw	t7,52(sp)
800002ac:	8fb00030 	lw	s0,48(sp)
800002b0:	8fb1002c 	lw	s1,44(sp)
800002b4:	8fb20028 	lw	s2,40(sp)
800002b8:	8fb30024 	lw	s3,36(sp)
800002bc:	8fb40020 	lw	s4,32(sp)
800002c0:	8fb5001c 	lw	s5,28(sp)
800002c4:	8fb60018 	lw	s6,24(sp)
800002c8:	8fb70014 	lw	s7,20(sp)
800002cc:	8fb80010 	lw	t8,16(sp)
800002d0:	8fb9000c 	lw	t9,12(sp)
800002d4:	8fbc0008 	lw	gp,8(sp)
800002d8:	8fbe0004 	lw	s8,4(sp)
800002dc:	8fbf0000 	lw	ra,0(sp)
800002e0:	23bd007c 	addi	sp,sp,124
800002e4:	42000018 	eret
	...

80000400 <init_start>:
80000400:	3c1d8000 	lui	sp,0x8000
80000404:	37bd3000 	ori	sp,sp,0x3000
80000408:	0c000108 	jal	80000420 <init_all>
8000040c:	00000000 	nop
80000410:	201a0001 	addi	k0,zero,1
80000414:	409a5000 	mtc0	k0,c0_entryhi
80000418:	0800055c 	j	80001570 <shell>
8000041c:	00000000 	nop

80000420 <init_all>:
80000420:	27bdffe8 	addiu	sp,sp,-24
80000424:	afbf0014 	sw	ra,20(sp)
80000428:	3c02b000 	lui	v0,0xb000
8000042c:	24422000 	addiu	v0,v0,8192
80000430:	3c03b000 	lui	v1,0xb000
80000434:	246332c0 	addiu	v1,v1,12992
80000438:	ac400000 	sw	zero,0(v0)
8000043c:	24420004 	addiu	v0,v0,4
80000440:	1443fffd 	bne	v0,v1,80000438 <init_all+0x18>
80000444:	00000000 	nop
80000448:	3c02b000 	lui	v0,0xb000
8000044c:	24030001 	li	v1,1
80000450:	ac430000 	sw	v1,0(v0)
80000454:	3c03013f 	lui	v1,0x13f
80000458:	ac430004 	sw	v1,4(v0)
8000045c:	ac40000c 	sw	zero,12(v0)
80000460:	3c03aa55 	lui	v1,0xaa55
80000464:	246355aa 	addiu	v1,v1,21930
80000468:	0c000124 	jal	80000490 <init_keybuf>
8000046c:	ac430010 	sw	v1,16(v0)
80000470:	0c000590 	jal	80001640 <init_input>
80000474:	00000000 	nop
80000478:	0c0001f2 	jal	800007c8 <init_timer>
8000047c:	00000000 	nop
80000480:	8fbf0014 	lw	ra,20(sp)
80000484:	00000000 	nop
80000488:	03e00008 	jr	ra
8000048c:	27bd0018 	addiu	sp,sp,24

80000490 <init_keybuf>:
80000490:	3c028000 	lui	v0,0x8000
80000494:	24422054 	addiu	v0,v0,8276
80000498:	3c038000 	lui	v1,0x8000
8000049c:	24632064 	addiu	v1,v1,8292
800004a0:	24440010 	addiu	a0,v0,16
800004a4:	a0400000 	sb	zero,0(v0)
800004a8:	a0600000 	sb	zero,0(v1)
800004ac:	24420001 	addiu	v0,v0,1
800004b0:	1444fffc 	bne	v0,a0,800004a4 <init_keybuf+0x14>
800004b4:	24630001 	addiu	v1,v1,1
800004b8:	3c028000 	lui	v0,0x8000
800004bc:	2403001f 	li	v1,31
800004c0:	ac432010 	sw	v1,8208(v0)
800004c4:	3c028000 	lui	v0,0x8000
800004c8:	ac40200c 	sw	zero,8204(v0)
800004cc:	3c028000 	lui	v0,0x8000
800004d0:	ac402008 	sw	zero,8200(v0)
800004d4:	3c028000 	lui	v0,0x8000
800004d8:	03e00008 	jr	ra
800004dc:	ac402004 	sw	zero,8196(v0)

800004e0 <get_from_keybuf>:
800004e0:	3c028000 	lui	v0,0x8000
800004e4:	8c43200c 	lw	v1,8204(v0)
800004e8:	3c028000 	lui	v0,0x8000
800004ec:	8c422010 	lw	v0,8208(v0)
800004f0:	00000000 	nop
800004f4:	24420001 	addiu	v0,v0,1
800004f8:	3042001f 	andi	v0,v0,0x1f
800004fc:	1043000a 	beq	v0,v1,80000528 <get_from_keybuf+0x48>
80000500:	3c048000 	lui	a0,0x8000
80000504:	00031040 	sll	v0,v1,0x1
80000508:	24842014 	addiu	a0,a0,8212
8000050c:	00441021 	addu	v0,v0,a0
80000510:	94420000 	lhu	v0,0(v0)
80000514:	24630001 	addiu	v1,v1,1
80000518:	3063001f 	andi	v1,v1,0x1f
8000051c:	3c048000 	lui	a0,0x8000
80000520:	03e00008 	jr	ra
80000524:	ac83200c 	sw	v1,8204(a0)
80000528:	03e00008 	jr	ra
8000052c:	3402ffff 	li	v0,0xffff

80000530 <handle_keyboard>:
80000530:	3c02b000 	lui	v0,0xb000
80000534:	90450014 	lbu	a1,20(v0)
80000538:	3c028000 	lui	v0,0x8000
8000053c:	8c422008 	lw	v0,8200(v0)
80000540:	24030001 	li	v1,1
80000544:	10430055 	beq	v0,v1,8000069c <handle_keyboard+0x16c>
80000548:	000518c2 	srl	v1,a1,0x3
8000054c:	10400007 	beqz	v0,8000056c <handle_keyboard+0x3c>
80000550:	24030002 	li	v1,2
80000554:	1043006e 	beq	v0,v1,80000710 <handle_keyboard+0x1e0>
80000558:	24030003 	li	v1,3
8000055c:	10430089 	beq	v0,v1,80000784 <handle_keyboard+0x254>
80000560:	00000000 	nop
80000564:	03e00008 	jr	ra
80000568:	00000000 	nop
8000056c:	240200e0 	li	v0,224
80000570:	10a20037 	beq	a1,v0,80000650 <handle_keyboard+0x120>
80000574:	3c028000 	lui	v0,0x8000
80000578:	240200f0 	li	v0,240
8000057c:	10a20037 	beq	a1,v0,8000065c <handle_keyboard+0x12c>
80000580:	30a60007 	andi	a2,a1,0x7
80000584:	000518c2 	srl	v1,a1,0x3
80000588:	3c028000 	lui	v0,0x8000
8000058c:	24422064 	addiu	v0,v0,8292
80000590:	00621021 	addu	v0,v1,v0
80000594:	90440000 	lbu	a0,0(v0)
80000598:	00000000 	nop
8000059c:	00c41007 	srav	v0,a0,a2
800005a0:	30420001 	andi	v0,v0,0x1
800005a4:	14400086 	bnez	v0,800007c0 <handle_keyboard+0x290>
800005a8:	00000000 	nop
800005ac:	27bdffe8 	addiu	sp,sp,-24
800005b0:	afbf0014 	sw	ra,20(sp)
800005b4:	3c028000 	lui	v0,0x8000
800005b8:	24422064 	addiu	v0,v0,8292
800005bc:	00621821 	addu	v1,v1,v0
800005c0:	24020001 	li	v0,1
800005c4:	00c21004 	sllv	v0,v0,a2
800005c8:	00441025 	or	v0,v0,a0
800005cc:	a0620000 	sb	v0,0(v1)
800005d0:	24020058 	li	v0,88
800005d4:	10a20025 	beq	a1,v0,8000066c <handle_keyboard+0x13c>
800005d8:	3c028000 	lui	v0,0x8000
800005dc:	8c442004 	lw	a0,8196(v0)
800005e0:	0c0005a3 	jal	8000168c <input_key>
800005e4:	00000000 	nop
800005e8:	3403ffff 	li	v1,0xffff
800005ec:	10430012 	beq	v0,v1,80000638 <handle_keyboard+0x108>
800005f0:	3c038000 	lui	v1,0x8000
800005f4:	8c632010 	lw	v1,8208(v1)
800005f8:	00000000 	nop
800005fc:	24640002 	addiu	a0,v1,2
80000600:	3084001f 	andi	a0,a0,0x1f
80000604:	3c058000 	lui	a1,0x8000
80000608:	8ca5200c 	lw	a1,8204(a1)
8000060c:	00000000 	nop
80000610:	10850009 	beq	a0,a1,80000638 <handle_keyboard+0x108>
80000614:	24630001 	addiu	v1,v1,1
80000618:	3063001f 	andi	v1,v1,0x1f
8000061c:	3c048000 	lui	a0,0x8000
80000620:	ac832010 	sw	v1,8208(a0)
80000624:	00031840 	sll	v1,v1,0x1
80000628:	3c048000 	lui	a0,0x8000
8000062c:	24842014 	addiu	a0,a0,8212
80000630:	00641821 	addu	v1,v1,a0
80000634:	a4620000 	sh	v0,0(v1)
80000638:	3c028000 	lui	v0,0x8000
8000063c:	ac402008 	sw	zero,8200(v0)
80000640:	8fbf0014 	lw	ra,20(sp)
80000644:	00000000 	nop
80000648:	03e00008 	jr	ra
8000064c:	27bd0018 	addiu	sp,sp,24
80000650:	24030002 	li	v1,2
80000654:	03e00008 	jr	ra
80000658:	ac432008 	sw	v1,8200(v0)
8000065c:	3c028000 	lui	v0,0x8000
80000660:	24030001 	li	v1,1
80000664:	03e00008 	jr	ra
80000668:	ac432008 	sw	v1,8200(v0)
8000066c:	8c422004 	lw	v0,8196(v0)
80000670:	00000000 	nop
80000674:	10400005 	beqz	v0,8000068c <handle_keyboard+0x15c>
80000678:	24030002 	li	v1,2
8000067c:	1443ffd7 	bne	v0,v1,800005dc <handle_keyboard+0xac>
80000680:	3c028000 	lui	v0,0x8000
80000684:	1000ffd5 	b	800005dc <handle_keyboard+0xac>
80000688:	ac402004 	sw	zero,8196(v0)
8000068c:	3c028000 	lui	v0,0x8000
80000690:	24030001 	li	v1,1
80000694:	1000ffd1 	b	800005dc <handle_keyboard+0xac>
80000698:	ac432004 	sw	v1,8196(v0)
8000069c:	3c028000 	lui	v0,0x8000
800006a0:	24422064 	addiu	v0,v0,8292
800006a4:	00621821 	addu	v1,v1,v0
800006a8:	30a40007 	andi	a0,a1,0x7
800006ac:	24020001 	li	v0,1
800006b0:	00821004 	sllv	v0,v0,a0
800006b4:	00021027 	nor	v0,zero,v0
800006b8:	90640000 	lbu	a0,0(v1)
800006bc:	00000000 	nop
800006c0:	00441024 	and	v0,v0,a0
800006c4:	a0620000 	sb	v0,0(v1)
800006c8:	24020058 	li	v0,88
800006cc:	10a20004 	beq	a1,v0,800006e0 <handle_keyboard+0x1b0>
800006d0:	00000000 	nop
800006d4:	3c028000 	lui	v0,0x8000
800006d8:	03e00008 	jr	ra
800006dc:	ac402008 	sw	zero,8200(v0)
800006e0:	3c028000 	lui	v0,0x8000
800006e4:	8c432004 	lw	v1,8196(v0)
800006e8:	24020001 	li	v0,1
800006ec:	10620004 	beq	v1,v0,80000700 <handle_keyboard+0x1d0>
800006f0:	00000000 	nop
800006f4:	3c028000 	lui	v0,0x8000
800006f8:	1000fff6 	b	800006d4 <handle_keyboard+0x1a4>
800006fc:	ac402004 	sw	zero,8196(v0)
80000700:	3c028000 	lui	v0,0x8000
80000704:	24030002 	li	v1,2
80000708:	1000fff2 	b	800006d4 <handle_keyboard+0x1a4>
8000070c:	ac432004 	sw	v1,8196(v0)
80000710:	240200f0 	li	v0,240
80000714:	10a2000e 	beq	a1,v0,80000750 <handle_keyboard+0x220>
80000718:	3c028000 	lui	v0,0x8000
8000071c:	000518c2 	srl	v1,a1,0x3
80000720:	3c028000 	lui	v0,0x8000
80000724:	24422054 	addiu	v0,v0,8276
80000728:	00621021 	addu	v0,v1,v0
8000072c:	90440000 	lbu	a0,0(v0)
80000730:	30a50007 	andi	a1,a1,0x7
80000734:	00a41007 	srav	v0,a0,a1
80000738:	30420001 	andi	v0,v0,0x1
8000073c:	10400007 	beqz	v0,8000075c <handle_keyboard+0x22c>
80000740:	00000000 	nop
80000744:	3c028000 	lui	v0,0x8000
80000748:	03e00008 	jr	ra
8000074c:	ac402008 	sw	zero,8200(v0)
80000750:	24030003 	li	v1,3
80000754:	03e00008 	jr	ra
80000758:	ac432008 	sw	v1,8200(v0)
8000075c:	3c028000 	lui	v0,0x8000
80000760:	24422054 	addiu	v0,v0,8276
80000764:	00621821 	addu	v1,v1,v0
80000768:	24020001 	li	v0,1
8000076c:	00a22804 	sllv	a1,v0,a1
80000770:	00a42825 	or	a1,a1,a0
80000774:	a0650000 	sb	a1,0(v1)
80000778:	3c028000 	lui	v0,0x8000
8000077c:	03e00008 	jr	ra
80000780:	ac402008 	sw	zero,8200(v0)
80000784:	000518c2 	srl	v1,a1,0x3
80000788:	3c028000 	lui	v0,0x8000
8000078c:	24422054 	addiu	v0,v0,8276
80000790:	00621821 	addu	v1,v1,v0
80000794:	30a50007 	andi	a1,a1,0x7
80000798:	24020001 	li	v0,1
8000079c:	00a22804 	sllv	a1,v0,a1
800007a0:	00052827 	nor	a1,zero,a1
800007a4:	90620000 	lbu	v0,0(v1)
800007a8:	00000000 	nop
800007ac:	00a22824 	and	a1,a1,v0
800007b0:	a0650000 	sb	a1,0(v1)
800007b4:	3c028000 	lui	v0,0x8000
800007b8:	03e00008 	jr	ra
800007bc:	ac402008 	sw	zero,8200(v0)
800007c0:	03e00008 	jr	ra
800007c4:	00000000 	nop

800007c8 <init_timer>:
800007c8:	27bdfff8 	addiu	sp,sp,-8
800007cc:	afb00004 	sw	s0,4(sp)
800007d0:	3c038000 	lui	v1,0x8000
800007d4:	24020030 	li	v0,48
800007d8:	a4622074 	sh	v0,8308(v1)
800007dc:	24632074 	addiu	v1,v1,8308
800007e0:	a4620002 	sh	v0,2(v1)
800007e4:	2404003a 	li	a0,58
800007e8:	a4640004 	sh	a0,4(v1)
800007ec:	a4620006 	sh	v0,6(v1)
800007f0:	a4620008 	sh	v0,8(v1)
800007f4:	a464000a 	sh	a0,10(v1)
800007f8:	a462000c 	sh	v0,12(v1)
800007fc:	a462000e 	sh	v0,14(v1)
80000800:	00601025 	move	v0,v1
80000804:	24650010 	addiu	a1,v1,16
80000808:	3c04b000 	lui	a0,0xb000
8000080c:	248432a0 	addiu	a0,a0,12960
80000810:	3c063f00 	lui	a2,0x3f00
80000814:	94430000 	lhu	v1,0(v0)
80000818:	00661825 	or	v1,v1,a2
8000081c:	ac830000 	sw	v1,0(a0)
80000820:	24420002 	addiu	v0,v0,2
80000824:	1445fffb 	bne	v0,a1,80000814 <init_timer+0x4c>
80000828:	24840004 	addiu	a0,a0,4
8000082c:	3c1002fa 	lui	s0,0x2fa
80000830:	3610f080 	ori	s0,s0,0xf080
80000834:	40804800 	mtc0	zero,c0_count
80000838:	40905800 	mtc0	s0,c0_compare
8000083c:	8fb00004 	lw	s0,4(sp)
80000840:	03e00008 	jr	ra
80000844:	27bd0008 	addiu	sp,sp,8

80000848 <handle_timer>:
80000848:	27bdfff8 	addiu	sp,sp,-8
8000084c:	afb00004 	sw	s0,4(sp)
80000850:	3c028000 	lui	v0,0x8000
80000854:	94422082 	lhu	v0,8322(v0)
80000858:	24030039 	li	v1,57
8000085c:	10430016 	beq	v0,v1,800008b8 <handle_timer+0x70>
80000860:	24420001 	addiu	v0,v0,1
80000864:	3c038000 	lui	v1,0x8000
80000868:	a4622082 	sh	v0,8322(v1)
8000086c:	3c028000 	lui	v0,0x8000
80000870:	24422074 	addiu	v0,v0,8308
80000874:	24460010 	addiu	a2,v0,16
80000878:	3c04b000 	lui	a0,0xb000
8000087c:	248432a0 	addiu	a0,a0,12960
80000880:	3c053f00 	lui	a1,0x3f00
80000884:	94430000 	lhu	v1,0(v0)
80000888:	00651825 	or	v1,v1,a1
8000088c:	ac830000 	sw	v1,0(a0)
80000890:	24420002 	addiu	v0,v0,2
80000894:	1446fffb 	bne	v0,a2,80000884 <handle_timer+0x3c>
80000898:	24840004 	addiu	a0,a0,4
8000089c:	3c1002fa 	lui	s0,0x2fa
800008a0:	3610f080 	ori	s0,s0,0xf080
800008a4:	40804800 	mtc0	zero,c0_count
800008a8:	40905800 	mtc0	s0,c0_compare
800008ac:	8fb00004 	lw	s0,4(sp)
800008b0:	03e00008 	jr	ra
800008b4:	27bd0008 	addiu	sp,sp,8
800008b8:	3c028000 	lui	v0,0x8000
800008bc:	24422074 	addiu	v0,v0,8308
800008c0:	24030030 	li	v1,48
800008c4:	a443000e 	sh	v1,14(v0)
800008c8:	9442000c 	lhu	v0,12(v0)
800008cc:	24030035 	li	v1,53
800008d0:	10430004 	beq	v0,v1,800008e4 <handle_timer+0x9c>
800008d4:	24420001 	addiu	v0,v0,1
800008d8:	3c038000 	lui	v1,0x8000
800008dc:	1000ffe3 	b	8000086c <handle_timer+0x24>
800008e0:	a4622080 	sh	v0,8320(v1)
800008e4:	3c028000 	lui	v0,0x8000
800008e8:	24422074 	addiu	v0,v0,8308
800008ec:	24030030 	li	v1,48
800008f0:	a443000c 	sh	v1,12(v0)
800008f4:	94420008 	lhu	v0,8(v0)
800008f8:	24030039 	li	v1,57
800008fc:	10430004 	beq	v0,v1,80000910 <handle_timer+0xc8>
80000900:	24420001 	addiu	v0,v0,1
80000904:	3c038000 	lui	v1,0x8000
80000908:	1000ffd8 	b	8000086c <handle_timer+0x24>
8000090c:	a462207c 	sh	v0,8316(v1)
80000910:	3c028000 	lui	v0,0x8000
80000914:	24422074 	addiu	v0,v0,8308
80000918:	24030030 	li	v1,48
8000091c:	a4430008 	sh	v1,8(v0)
80000920:	94420006 	lhu	v0,6(v0)
80000924:	24030035 	li	v1,53
80000928:	10430004 	beq	v0,v1,8000093c <handle_timer+0xf4>
8000092c:	24420001 	addiu	v0,v0,1
80000930:	3c038000 	lui	v1,0x8000
80000934:	1000ffcd 	b	8000086c <handle_timer+0x24>
80000938:	a462207a 	sh	v0,8314(v1)
8000093c:	3c028000 	lui	v0,0x8000
80000940:	24432074 	addiu	v1,v0,8308
80000944:	24040030 	li	a0,48
80000948:	a4640006 	sh	a0,6(v1)
8000094c:	94432074 	lhu	v1,8308(v0)
80000950:	24020032 	li	v0,50
80000954:	10620008 	beq	v1,v0,80000978 <handle_timer+0x130>
80000958:	3c028000 	lui	v0,0x8000
8000095c:	94422076 	lhu	v0,8310(v0)
80000960:	24040039 	li	a0,57
80000964:	1044000e 	beq	v0,a0,800009a0 <handle_timer+0x158>
80000968:	24420001 	addiu	v0,v0,1
8000096c:	3c038000 	lui	v1,0x8000
80000970:	1000ffbe 	b	8000086c <handle_timer+0x24>
80000974:	a4622076 	sh	v0,8310(v1)
80000978:	94442076 	lhu	a0,8310(v0)
8000097c:	24020033 	li	v0,51
80000980:	1482fff6 	bne	a0,v0,8000095c <handle_timer+0x114>
80000984:	3c028000 	lui	v0,0x8000
80000988:	3c028000 	lui	v0,0x8000
8000098c:	24030030 	li	v1,48
80000990:	a4432074 	sh	v1,8308(v0)
80000994:	24422074 	addiu	v0,v0,8308
80000998:	1000ffb4 	b	8000086c <handle_timer+0x24>
8000099c:	a4430002 	sh	v1,2(v0)
800009a0:	3c028000 	lui	v0,0x8000
800009a4:	24442074 	addiu	a0,v0,8308
800009a8:	24050030 	li	a1,48
800009ac:	a4850002 	sh	a1,2(a0)
800009b0:	24630001 	addiu	v1,v1,1
800009b4:	1000ffae 	b	80000870 <handle_timer+0x28>
800009b8:	a4432074 	sh	v1,8308(v0)

800009bc <_scroll_screen>:
800009bc:	2482ffff 	addiu	v0,a0,-1
800009c0:	2c42001d 	sltiu	v0,v0,29
800009c4:	10400038 	beqz	v0,80000aa8 <_scroll_screen+0xec>
800009c8:	3c03b000 	lui	v1,0xb000
800009cc:	00041080 	sll	v0,a0,0x2
800009d0:	00441021 	addu	v0,v0,a0
800009d4:	00023940 	sll	a3,v0,0x5
800009d8:	24622000 	addiu	v0,v1,8192
800009dc:	00e21021 	addu	v0,a3,v0
800009e0:	24633220 	addiu	v1,v1,12832
800009e4:	0043182b 	sltu	v1,v0,v1
800009e8:	10600029 	beqz	v1,80000a90 <_scroll_screen+0xd4>
800009ec:	00e04025 	move	t0,a3
800009f0:	3c06b000 	lui	a2,0xb000
800009f4:	24c63220 	addiu	a2,a2,12832
800009f8:	8c450000 	lw	a1,0(v0)
800009fc:	00481823 	subu	v1,v0,t0
80000a00:	ac650000 	sw	a1,0(v1)
80000a04:	24420004 	addiu	v0,v0,4
80000a08:	0046182b 	sltu	v1,v0,a2
80000a0c:	1460fffa 	bnez	v1,800009f8 <_scroll_screen+0x3c>
80000a10:	2403fffc 	li	v1,-4
80000a14:	2402121f 	li	v0,4639
80000a18:	00471023 	subu	v0,v0,a3
80000a1c:	00431024 	and	v0,v0,v1
80000a20:	3c03b000 	lui	v1,0xb000
80000a24:	24652004 	addiu	a1,v1,8196
80000a28:	00451021 	addu	v0,v0,a1
80000a2c:	24633220 	addiu	v1,v1,12832
80000a30:	0043182b 	sltu	v1,v0,v1
80000a34:	10600008 	beqz	v1,80000a58 <_scroll_screen+0x9c>
80000a38:	00000000 	nop
80000a3c:	3c05b000 	lui	a1,0xb000
80000a40:	24a53220 	addiu	a1,a1,12832
80000a44:	ac400000 	sw	zero,0(v0)
80000a48:	24420004 	addiu	v0,v0,4
80000a4c:	0045182b 	sltu	v1,v0,a1
80000a50:	1460fffc 	bnez	v1,80000a44 <_scroll_screen+0x88>
80000a54:	00000000 	nop
80000a58:	3c02b000 	lui	v0,0xb000
80000a5c:	8c430004 	lw	v1,4(v0)
80000a60:	00041080 	sll	v0,a0,0x2
80000a64:	00442021 	addu	a0,v0,a0
80000a68:	000420c0 	sll	a0,a0,0x3
80000a6c:	306207ff 	andi	v0,v1,0x7ff
80000a70:	0082102b 	sltu	v0,a0,v0
80000a74:	10400009 	beqz	v0,80000a9c <_scroll_screen+0xe0>
80000a78:	00000000 	nop
80000a7c:	00641823 	subu	v1,v1,a0
80000a80:	3c02b000 	lui	v0,0xb000
80000a84:	ac430004 	sw	v1,4(v0)
80000a88:	03e00008 	jr	ra
80000a8c:	24020001 	li	v0,1
80000a90:	3c02b000 	lui	v0,0xb000
80000a94:	1000ffe9 	b	80000a3c <_scroll_screen+0x80>
80000a98:	24422000 	addiu	v0,v0,8192
80000a9c:	2404f800 	li	a0,-2048
80000aa0:	1000fff7 	b	80000a80 <_scroll_screen+0xc4>
80000aa4:	00641824 	and	v1,v1,a0
80000aa8:	03e00008 	jr	ra
80000aac:	00001025 	move	v0,zero

80000ab0 <_put_char>:
80000ab0:	3c02b000 	lui	v0,0xb000
80000ab4:	8c420004 	lw	v0,4(v0)
80000ab8:	2403000a 	li	v1,10
80000abc:	1083000d 	beq	a0,v1,80000af4 <_put_char+0x44>
80000ac0:	24030009 	li	v1,9
80000ac4:	1083001d 	beq	a0,v1,80000b3c <_put_char+0x8c>
80000ac8:	24030008 	li	v1,8
80000acc:	10830021 	beq	a0,v1,80000b54 <_put_char+0xa4>
80000ad0:	304307ff 	andi	v1,v0,0x7ff
80000ad4:	00032880 	sll	a1,v1,0x2
80000ad8:	3c03b000 	lui	v1,0xb000
80000adc:	00651821 	addu	v1,v1,a1
80000ae0:	3c053f00 	lui	a1,0x3f00
80000ae4:	00852025 	or	a0,a0,a1
80000ae8:	ac642000 	sw	a0,8192(v1)
80000aec:	1000000b 	b	80000b1c <_put_char+0x6c>
80000af0:	24420001 	addiu	v0,v0,1
80000af4:	304307ff 	andi	v1,v0,0x7ff
80000af8:	2c640028 	sltiu	a0,v1,40
80000afc:	14800005 	bnez	a0,80000b14 <_put_char+0x64>
80000b00:	00000000 	nop
80000b04:	2463ffd8 	addiu	v1,v1,-40
80000b08:	2c640028 	sltiu	a0,v1,40
80000b0c:	1080fffd 	beqz	a0,80000b04 <_put_char+0x54>
80000b10:	00000000 	nop
80000b14:	24420028 	addiu	v0,v0,40
80000b18:	00431023 	subu	v0,v0,v1
80000b1c:	3c03b000 	lui	v1,0xb000
80000b20:	ac620004 	sw	v0,4(v1)
80000b24:	304207ff 	andi	v0,v0,0x7ff
80000b28:	2c420488 	sltiu	v0,v0,1160
80000b2c:	10400011 	beqz	v0,80000b74 <_put_char+0xc4>
80000b30:	00000000 	nop
80000b34:	03e00008 	jr	ra
80000b38:	24020001 	li	v0,1
80000b3c:	24420001 	addiu	v0,v0,1
80000b40:	30430003 	andi	v1,v0,0x3
80000b44:	1460fffd 	bnez	v1,80000b3c <_put_char+0x8c>
80000b48:	3c03b000 	lui	v1,0xb000
80000b4c:	1000fff5 	b	80000b24 <_put_char+0x74>
80000b50:	ac620004 	sw	v0,4(v1)
80000b54:	304407ff 	andi	a0,v0,0x7ff
80000b58:	00042880 	sll	a1,a0,0x2
80000b5c:	3c03b000 	lui	v1,0xb000
80000b60:	00651821 	addu	v1,v1,a1
80000b64:	1080000c 	beqz	a0,80000b98 <_put_char+0xe8>
80000b68:	ac602000 	sw	zero,8192(v1)
80000b6c:	1000ffeb 	b	80000b1c <_put_char+0x6c>
80000b70:	2442ffff 	addiu	v0,v0,-1
80000b74:	27bdffe8 	addiu	sp,sp,-24
80000b78:	afbf0014 	sw	ra,20(sp)
80000b7c:	0c00026f 	jal	800009bc <_scroll_screen>
80000b80:	24040001 	li	a0,1
80000b84:	24020001 	li	v0,1
80000b88:	8fbf0014 	lw	ra,20(sp)
80000b8c:	00000000 	nop
80000b90:	03e00008 	jr	ra
80000b94:	27bd0018 	addiu	sp,sp,24
80000b98:	3c03b000 	lui	v1,0xb000
80000b9c:	1000ffe5 	b	80000b34 <_put_char+0x84>
80000ba0:	ac620004 	sw	v0,4(v1)

80000ba4 <put_seg_>:
80000ba4:	8c83005c 	lw	v1,92(a0)
80000ba8:	3c02b000 	lui	v0,0xb000
80000bac:	ac430010 	sw	v1,16(v0)
80000bb0:	03e00008 	jr	ra
80000bb4:	24020001 	li	v0,1

80000bb8 <get_sw_>:
80000bb8:	3c02b000 	lui	v0,0xb000
80000bbc:	8c420008 	lw	v0,8(v0)
80000bc0:	03e00008 	jr	ra
80000bc4:	00000000 	nop

80000bc8 <get_btn_>:
80000bc8:	3c02b000 	lui	v0,0xb000
80000bcc:	8c42001c 	lw	v0,28(v0)
80000bd0:	03e00008 	jr	ra
80000bd4:	00000000 	nop

80000bd8 <put_led_>:
80000bd8:	8c83005c 	lw	v1,92(a0)
80000bdc:	3c02b000 	lui	v0,0xb000
80000be0:	ac43000c 	sw	v1,12(v0)
80000be4:	03e00008 	jr	ra
80000be8:	24020001 	li	v0,1

80000bec <set_vga_>:
80000bec:	3c05b000 	lui	a1,0xb000
80000bf0:	8ca20000 	lw	v0,0(a1)
80000bf4:	2403fffc 	li	v1,-4
80000bf8:	00431024 	and	v0,v0,v1
80000bfc:	8c83005c 	lw	v1,92(a0)
80000c00:	00000000 	nop
80000c04:	30630011 	andi	v1,v1,0x11
80000c08:	00431025 	or	v0,v0,v1
80000c0c:	aca20000 	sw	v0,0(a1)
80000c10:	03e00008 	jr	ra
80000c14:	24020001 	li	v0,1

80000c18 <set_cursor_>:
80000c18:	8c850058 	lw	a1,88(a0)
80000c1c:	8c82005c 	lw	v0,92(a0)
80000c20:	00000000 	nop
80000c24:	00021600 	sll	v0,v0,0x18
80000c28:	3c031100 	lui	v1,0x1100
80000c2c:	00431024 	and	v0,v0,v1
80000c30:	8c830054 	lw	v1,84(a0)
80000c34:	00000000 	nop
80000c38:	306307ff 	andi	v1,v1,0x7ff
80000c3c:	00431025 	or	v0,v0,v1
80000c40:	90a30002 	lbu	v1,2(a1)
80000c44:	00000000 	nop
80000c48:	00031982 	srl	v1,v1,0x6
80000c4c:	00031d00 	sll	v1,v1,0x14
80000c50:	00431025 	or	v0,v0,v1
80000c54:	90a30001 	lbu	v1,1(a1)
80000c58:	00000000 	nop
80000c5c:	00031982 	srl	v1,v1,0x6
80000c60:	00031c80 	sll	v1,v1,0x12
80000c64:	00431025 	or	v0,v0,v1
80000c68:	90a30000 	lbu	v1,0(a1)
80000c6c:	00000000 	nop
80000c70:	00031982 	srl	v1,v1,0x6
80000c74:	00031c00 	sll	v1,v1,0x10
80000c78:	00621025 	or	v0,v1,v0
80000c7c:	3c03b000 	lui	v1,0xb000
80000c80:	ac620004 	sw	v0,4(v1)
80000c84:	03e00008 	jr	ra
80000c88:	24020001 	li	v0,1

80000c8c <get_cursor_>:
80000c8c:	3c02b000 	lui	v0,0xb000
80000c90:	8c420004 	lw	v0,4(v0)
80000c94:	03e00008 	jr	ra
80000c98:	00000000 	nop

80000c9c <scroll_screen_>:
80000c9c:	27bdffe8 	addiu	sp,sp,-24
80000ca0:	afbf0014 	sw	ra,20(sp)
80000ca4:	8c84005c 	lw	a0,92(a0)
80000ca8:	0c00026f 	jal	800009bc <_scroll_screen>
80000cac:	00000000 	nop
80000cb0:	8fbf0014 	lw	ra,20(sp)
80000cb4:	00000000 	nop
80000cb8:	03e00008 	jr	ra
80000cbc:	27bd0018 	addiu	sp,sp,24

80000cc0 <clear_screen_>:
80000cc0:	3c02b000 	lui	v0,0xb000
80000cc4:	24422000 	addiu	v0,v0,8192
80000cc8:	3c03b000 	lui	v1,0xb000
80000ccc:	24633220 	addiu	v1,v1,12832
80000cd0:	ac400000 	sw	zero,0(v0)
80000cd4:	24420004 	addiu	v0,v0,4
80000cd8:	1443fffd 	bne	v0,v1,80000cd0 <clear_screen_+0x10>
80000cdc:	2404f800 	li	a0,-2048
80000ce0:	3c03b000 	lui	v1,0xb000
80000ce4:	8c620004 	lw	v0,4(v1)
80000ce8:	00000000 	nop
80000cec:	00441024 	and	v0,v0,a0
80000cf0:	ac620004 	sw	v0,4(v1)
80000cf4:	03e00008 	jr	ra
80000cf8:	24020001 	li	v0,1

80000cfc <put_charAt_>:
80000cfc:	8c820058 	lw	v0,88(a0)
80000d00:	00000000 	nop
80000d04:	2c430488 	sltiu	v1,v0,1160
80000d08:	10600027 	beqz	v1,80000da8 <put_charAt_+0xac>
80000d0c:	3c06b000 	lui	a2,0xb000
80000d10:	8c830054 	lw	v1,84(a0)
80000d14:	00021080 	sll	v0,v0,0x2
80000d18:	00c23021 	addu	a2,a2,v0
80000d1c:	90620002 	lbu	v0,2(v1)
80000d20:	00000000 	nop
80000d24:	00021182 	srl	v0,v0,0x6
80000d28:	00021700 	sll	v0,v0,0x1c
80000d2c:	90650001 	lbu	a1,1(v1)
80000d30:	00000000 	nop
80000d34:	00052982 	srl	a1,a1,0x6
80000d38:	00052e80 	sll	a1,a1,0x1a
80000d3c:	00451025 	or	v0,v0,a1
80000d40:	90650000 	lbu	a1,0(v1)
80000d44:	00000000 	nop
80000d48:	00052982 	srl	a1,a1,0x6
80000d4c:	00052e00 	sll	a1,a1,0x18
80000d50:	00451025 	or	v0,v0,a1
80000d54:	90650005 	lbu	a1,5(v1)
80000d58:	00000000 	nop
80000d5c:	00052982 	srl	a1,a1,0x6
80000d60:	00052d00 	sll	a1,a1,0x14
80000d64:	00451025 	or	v0,v0,a1
80000d68:	90650004 	lbu	a1,4(v1)
80000d6c:	00000000 	nop
80000d70:	00052982 	srl	a1,a1,0x6
80000d74:	00052c80 	sll	a1,a1,0x12
80000d78:	00451025 	or	v0,v0,a1
80000d7c:	90630003 	lbu	v1,3(v1)
80000d80:	00000000 	nop
80000d84:	00031982 	srl	v1,v1,0x6
80000d88:	00031c00 	sll	v1,v1,0x10
80000d8c:	00431025 	or	v0,v0,v1
80000d90:	9483005c 	lhu	v1,92(a0)
80000d94:	00000000 	nop
80000d98:	00431025 	or	v0,v0,v1
80000d9c:	acc22000 	sw	v0,8192(a2)
80000da0:	03e00008 	jr	ra
80000da4:	24020001 	li	v0,1
80000da8:	03e00008 	jr	ra
80000dac:	00001025 	move	v0,zero

80000db0 <put_char_>:
80000db0:	27bdffe8 	addiu	sp,sp,-24
80000db4:	afbf0014 	sw	ra,20(sp)
80000db8:	9484005c 	lhu	a0,92(a0)
80000dbc:	0c0002ac 	jal	80000ab0 <_put_char>
80000dc0:	00000000 	nop
80000dc4:	8fbf0014 	lw	ra,20(sp)
80000dc8:	00000000 	nop
80000dcc:	03e00008 	jr	ra
80000dd0:	27bd0018 	addiu	sp,sp,24

80000dd4 <put_string_>:
80000dd4:	27bdffe8 	addiu	sp,sp,-24
80000dd8:	afbf0014 	sw	ra,20(sp)
80000ddc:	afb00010 	sw	s0,16(sp)
80000de0:	8c90005c 	lw	s0,92(a0)
80000de4:	00000000 	nop
80000de8:	96040000 	lhu	a0,0(s0)
80000dec:	00000000 	nop
80000df0:	10800007 	beqz	a0,80000e10 <put_string_+0x3c>
80000df4:	24020001 	li	v0,1
80000df8:	0c0002ac 	jal	80000ab0 <_put_char>
80000dfc:	26100002 	addiu	s0,s0,2
80000e00:	96040000 	lhu	a0,0(s0)
80000e04:	00000000 	nop
80000e08:	1480fffb 	bnez	a0,80000df8 <put_string_+0x24>
80000e0c:	24020001 	li	v0,1
80000e10:	8fbf0014 	lw	ra,20(sp)
80000e14:	8fb00010 	lw	s0,16(sp)
80000e18:	03e00008 	jr	ra
80000e1c:	27bd0018 	addiu	sp,sp,24

80000e20 <put_pixel_>:
80000e20:	8c85005c 	lw	a1,92(a0)
80000e24:	8c830058 	lw	v1,88(a0)
80000e28:	2ca20280 	sltiu	v0,a1,640
80000e2c:	1040001c 	beqz	v0,80000ea0 <put_pixel_+0x80>
80000e30:	00000000 	nop
80000e34:	2c6201e0 	sltiu	v0,v1,480
80000e38:	10400019 	beqz	v0,80000ea0 <put_pixel_+0x80>
80000e3c:	00000000 	nop
80000e40:	8c860054 	lw	a2,84(a0)
80000e44:	00031080 	sll	v0,v1,0x2
80000e48:	00431021 	addu	v0,v0,v1
80000e4c:	000211c0 	sll	v0,v0,0x7
80000e50:	00451021 	addu	v0,v0,a1
80000e54:	00021080 	sll	v0,v0,0x2
80000e58:	3c04b001 	lui	a0,0xb001
80000e5c:	00822021 	addu	a0,a0,v0
80000e60:	90c20002 	lbu	v0,2(a2)
80000e64:	00000000 	nop
80000e68:	00021142 	srl	v0,v0,0x5
80000e6c:	00021180 	sll	v0,v0,0x6
80000e70:	90c30001 	lbu	v1,1(a2)
80000e74:	00000000 	nop
80000e78:	00031942 	srl	v1,v1,0x5
80000e7c:	000318c0 	sll	v1,v1,0x3
80000e80:	00431025 	or	v0,v0,v1
80000e84:	90c30000 	lbu	v1,0(a2)
80000e88:	00000000 	nop
80000e8c:	00031942 	srl	v1,v1,0x5
80000e90:	00431025 	or	v0,v0,v1
80000e94:	a4820000 	sh	v0,0(a0)
80000e98:	03e00008 	jr	ra
80000e9c:	24020001 	li	v0,1
80000ea0:	03e00008 	jr	ra
80000ea4:	00001025 	move	v0,zero

80000ea8 <get_char_>:
80000ea8:	27bdffe8 	addiu	sp,sp,-24
80000eac:	afbf0014 	sw	ra,20(sp)
80000eb0:	0c000138 	jal	800004e0 <get_from_keybuf>
80000eb4:	00000000 	nop
80000eb8:	8fbf0014 	lw	ra,20(sp)
80000ebc:	00000000 	nop
80000ec0:	03e00008 	jr	ra
80000ec4:	27bd0018 	addiu	sp,sp,24

80000ec8 <handle_syscall>:
80000ec8:	27bdffe0 	addiu	sp,sp,-32
80000ecc:	afbf001c 	sw	ra,28(sp)
80000ed0:	afb10018 	sw	s1,24(sp)
80000ed4:	afb00014 	sw	s0,20(sp)
80000ed8:	00e08825 	move	s1,a3
80000edc:	24d00004 	addiu	s0,a2,4
80000ee0:	40907000 	mtc0	s0,c0_epc
80000ee4:	8ce20060 	lw	v0,96(a3)
80000ee8:	00021080 	sll	v0,v0,0x2
80000eec:	3c038000 	lui	v1,0x8000
80000ef0:	24632084 	addiu	v1,v1,8324
80000ef4:	00431021 	addu	v0,v0,v1
80000ef8:	8c420000 	lw	v0,0(v0)
80000efc:	0040f809 	jalr	v0
80000f00:	00e02025 	move	a0,a3
80000f04:	ae220068 	sw	v0,104(s1)
80000f08:	8fbf001c 	lw	ra,28(sp)
80000f0c:	8fb10018 	lw	s1,24(sp)
80000f10:	8fb00014 	lw	s0,20(sp)
80000f14:	03e00008 	jr	ra
80000f18:	27bd0020 	addiu	sp,sp,32

80000f1c <handle_interrupt>:
80000f1c:	27bdffe8 	addiu	sp,sp,-24
80000f20:	30a28000 	andi	v0,a1,0x8000
80000f24:	14400008 	bnez	v0,80000f48 <handle_interrupt+0x2c>
80000f28:	afbf0014 	sw	ra,20(sp)
80000f2c:	30a54000 	andi	a1,a1,0x4000
80000f30:	14a00009 	bnez	a1,80000f58 <handle_interrupt+0x3c>
80000f34:	00000000 	nop
80000f38:	8fbf0014 	lw	ra,20(sp)
80000f3c:	00000000 	nop
80000f40:	03e00008 	jr	ra
80000f44:	27bd0018 	addiu	sp,sp,24
80000f48:	0c000212 	jal	80000848 <handle_timer>
80000f4c:	00000000 	nop
80000f50:	1000fff9 	b	80000f38 <handle_interrupt+0x1c>
80000f54:	00000000 	nop
80000f58:	0c00014c 	jal	80000530 <handle_keyboard>
80000f5c:	00000000 	nop
80000f60:	1000fff5 	b	80000f38 <handle_interrupt+0x1c>
80000f64:	00000000 	nop

80000f68 <handle_exception>:
80000f68:	27bdffe8 	addiu	sp,sp,-24
80000f6c:	afbf0014 	sw	ra,20(sp)
80000f70:	30a2007c 	andi	v0,a1,0x7c
80000f74:	3c038000 	lui	v1,0x8000
80000f78:	24632104 	addiu	v1,v1,8452
80000f7c:	00431021 	addu	v0,v0,v1
80000f80:	8c420000 	lw	v0,0(v0)
80000f84:	00000000 	nop
80000f88:	0040f809 	jalr	v0
80000f8c:	00000000 	nop
80000f90:	8fbf0014 	lw	ra,20(sp)
80000f94:	00000000 	nop
80000f98:	03e00008 	jr	ra
80000f9c:	27bd0018 	addiu	sp,sp,24

80000fa0 <kput_char>:
80000fa0:	00052880 	sll	a1,a1,0x2
80000fa4:	3c02b000 	lui	v0,0xb000
80000fa8:	00452821 	addu	a1,v0,a1
80000fac:	3c023f00 	lui	v0,0x3f00
80000fb0:	00822025 	or	a0,a0,v0
80000fb4:	03e00008 	jr	ra
80000fb8:	aca42000 	sw	a0,8192(a1)

80000fbc <kstrcmp_short>:
80000fbc:	10c00014 	beqz	a2,80001010 <kstrcmp_short+0x54>
80000fc0:	00000000 	nop
80000fc4:	94830000 	lhu	v1,0(a0)
80000fc8:	94a20000 	lhu	v0,0(a1)
80000fcc:	00000000 	nop
80000fd0:	14620011 	bne	v1,v0,80001018 <kstrcmp_short+0x5c>
80000fd4:	24840002 	addiu	a0,a0,2
80000fd8:	24a50002 	addiu	a1,a1,2
80000fdc:	00001825 	move	v1,zero
80000fe0:	24630001 	addiu	v1,v1,1
80000fe4:	10c30008 	beq	a2,v1,80001008 <kstrcmp_short+0x4c>
80000fe8:	00000000 	nop
80000fec:	94880000 	lhu	t0,0(a0)
80000ff0:	94a70000 	lhu	a3,0(a1)
80000ff4:	24840002 	addiu	a0,a0,2
80000ff8:	1107fff9 	beq	t0,a3,80000fe0 <kstrcmp_short+0x24>
80000ffc:	24a50002 	addiu	a1,a1,2
80001000:	03e00008 	jr	ra
80001004:	24020001 	li	v0,1
80001008:	03e00008 	jr	ra
8000100c:	00001025 	move	v0,zero
80001010:	03e00008 	jr	ra
80001014:	00c01025 	move	v0,a2
80001018:	03e00008 	jr	ra
8000101c:	24020001 	li	v0,1

80001020 <kstrcmp_char>:
80001020:	10c00013 	beqz	a2,80001070 <kstrcmp_char+0x50>
80001024:	00000000 	nop
80001028:	90830000 	lbu	v1,0(a0)
8000102c:	90a20000 	lbu	v0,0(a1)
80001030:	00000000 	nop
80001034:	14620010 	bne	v1,v0,80001078 <kstrcmp_char+0x58>
80001038:	24830001 	addiu	v1,a0,1
8000103c:	24a50001 	addiu	a1,a1,1
80001040:	00863021 	addu	a2,a0,a2
80001044:	10660008 	beq	v1,a2,80001068 <kstrcmp_char+0x48>
80001048:	00000000 	nop
8000104c:	90680000 	lbu	t0,0(v1)
80001050:	90a70000 	lbu	a3,0(a1)
80001054:	24630001 	addiu	v1,v1,1
80001058:	1107fffa 	beq	t0,a3,80001044 <kstrcmp_char+0x24>
8000105c:	24a50001 	addiu	a1,a1,1
80001060:	03e00008 	jr	ra
80001064:	24020001 	li	v0,1
80001068:	03e00008 	jr	ra
8000106c:	00001025 	move	v0,zero
80001070:	03e00008 	jr	ra
80001074:	00c01025 	move	v0,a2
80001078:	03e00008 	jr	ra
8000107c:	24020001 	li	v0,1

80001080 <kstrlen_short>:
80001080:	94820000 	lhu	v0,0(a0)
80001084:	00000000 	nop
80001088:	10400009 	beqz	v0,800010b0 <kstrlen_short+0x30>
8000108c:	24840002 	addiu	a0,a0,2
80001090:	00001025 	move	v0,zero
80001094:	24840002 	addiu	a0,a0,2
80001098:	9483fffe 	lhu	v1,-2(a0)
8000109c:	00000000 	nop
800010a0:	1460fffc 	bnez	v1,80001094 <kstrlen_short+0x14>
800010a4:	24420001 	addiu	v0,v0,1
800010a8:	03e00008 	jr	ra
800010ac:	00000000 	nop
800010b0:	03e00008 	jr	ra
800010b4:	00001025 	move	v0,zero

800010b8 <kstrlen_char>:
800010b8:	90820000 	lbu	v0,0(a0)
800010bc:	00000000 	nop
800010c0:	10400009 	beqz	v0,800010e8 <kstrlen_char+0x30>
800010c4:	24840001 	addiu	a0,a0,1
800010c8:	00001025 	move	v0,zero
800010cc:	24840001 	addiu	a0,a0,1
800010d0:	9083ffff 	lbu	v1,-1(a0)
800010d4:	00000000 	nop
800010d8:	1460fffc 	bnez	v1,800010cc <kstrlen_char+0x14>
800010dc:	24420001 	addiu	v0,v0,1
800010e0:	03e00008 	jr	ra
800010e4:	00000000 	nop
800010e8:	03e00008 	jr	ra
800010ec:	00001025 	move	v0,zero

800010f0 <kmemcpy>:
800010f0:	10c00008 	beqz	a2,80001114 <kmemcpy+0x24>
800010f4:	00a01025 	move	v0,a1
800010f8:	00a62821 	addu	a1,a1,a2
800010fc:	90430000 	lbu	v1,0(v0)
80001100:	00000000 	nop
80001104:	a0830000 	sb	v1,0(a0)
80001108:	24420001 	addiu	v0,v0,1
8000110c:	1445fffb 	bne	v0,a1,800010fc <kmemcpy+0xc>
80001110:	24840001 	addiu	a0,a0,1
80001114:	03e00008 	jr	ra
80001118:	00000000 	nop

8000111c <kshort2char>:
8000111c:	10c00009 	beqz	a2,80001144 <kshort2char+0x28>
80001120:	00a01025 	move	v0,a1
80001124:	00063040 	sll	a2,a2,0x1
80001128:	00a62821 	addu	a1,a1,a2
8000112c:	94430000 	lhu	v1,0(v0)
80001130:	00000000 	nop
80001134:	a0830000 	sb	v1,0(a0)
80001138:	24420002 	addiu	v0,v0,2
8000113c:	1445fffb 	bne	v0,a1,8000112c <kshort2char+0x10>
80001140:	24840001 	addiu	a0,a0,1
80001144:	03e00008 	jr	ra
80001148:	00000000 	nop

8000114c <kchar2short>:
8000114c:	10c00009 	beqz	a2,80001174 <kchar2short+0x28>
80001150:	00801025 	move	v0,a0
80001154:	00063040 	sll	a2,a2,0x1
80001158:	00862021 	addu	a0,a0,a2
8000115c:	90a30000 	lbu	v1,0(a1)
80001160:	00000000 	nop
80001164:	a4430000 	sh	v1,0(v0)
80001168:	24420002 	addiu	v0,v0,2
8000116c:	1444fffb 	bne	v0,a0,8000115c <kchar2short+0x10>
80001170:	24a50001 	addiu	a1,a1,1
80001174:	03e00008 	jr	ra
80001178:	00000000 	nop

8000117c <get_sw>:
8000117c:	24040001 	li	a0,1
80001180:	0000000c 	syscall
80001184:	03e00008 	jr	ra
80001188:	00000000 	nop

8000118c <get_btn>:
8000118c:	24040002 	li	a0,2
80001190:	0000000c 	syscall
80001194:	03e00008 	jr	ra
80001198:	00000000 	nop

8000119c <get_cursor>:
8000119c:	24040006 	li	a0,6
800011a0:	0000000c 	syscall
800011a4:	03e00008 	jr	ra
800011a8:	00000000 	nop

800011ac <clear_screen>:
800011ac:	24040008 	li	a0,8
800011b0:	0000000c 	syscall
800011b4:	03e00008 	jr	ra
800011b8:	00000000 	nop

800011bc <get_char>:
800011bc:	2404000d 	li	a0,13
800011c0:	0000000c 	syscall
800011c4:	03e00008 	jr	ra
800011c8:	00000000 	nop

800011cc <put_seg>:
800011cc:	00801025 	move	v0,a0
800011d0:	24040000 	li	a0,0
800011d4:	00402825 	move	a1,v0
800011d8:	0000000c 	syscall
800011dc:	03e00008 	jr	ra
800011e0:	00000000 	nop

800011e4 <put_led>:
800011e4:	00801025 	move	v0,a0
800011e8:	24040003 	li	a0,3
800011ec:	00402825 	move	a1,v0
800011f0:	0000000c 	syscall
800011f4:	03e00008 	jr	ra
800011f8:	00000000 	nop

800011fc <set_vga>:
800011fc:	00801025 	move	v0,a0
80001200:	24040004 	li	a0,4
80001204:	00402825 	move	a1,v0
80001208:	0000000c 	syscall
8000120c:	03e00008 	jr	ra
80001210:	00000000 	nop

80001214 <scroll_screen>:
80001214:	00801025 	move	v0,a0
80001218:	24040007 	li	a0,7
8000121c:	00402825 	move	a1,v0
80001220:	0000000c 	syscall
80001224:	03e00008 	jr	ra
80001228:	00000000 	nop

8000122c <put_char>:
8000122c:	00801025 	move	v0,a0
80001230:	2404000a 	li	a0,10
80001234:	00402825 	move	a1,v0
80001238:	0000000c 	syscall
8000123c:	03e00008 	jr	ra
80001240:	00000000 	nop

80001244 <put_string>:
80001244:	00801025 	move	v0,a0
80001248:	2404000b 	li	a0,11
8000124c:	00402825 	move	a1,v0
80001250:	0000000c 	syscall
80001254:	03e00008 	jr	ra
80001258:	00000000 	nop

8000125c <set_cursor>:
8000125c:	00801025 	move	v0,a0
80001260:	24040005 	li	a0,5
80001264:	00402825 	move	a1,v0
80001268:	00a03025 	move	a2,a1
8000126c:	00c03825 	move	a3,a2
80001270:	0000000c 	syscall
80001274:	03e00008 	jr	ra
80001278:	00000000 	nop

8000127c <put_charAt>:
8000127c:	00801025 	move	v0,a0
80001280:	24040009 	li	a0,9
80001284:	00402825 	move	a1,v0
80001288:	00a03025 	move	a2,a1
8000128c:	00c03825 	move	a3,a2
80001290:	0000000c 	syscall
80001294:	03e00008 	jr	ra
80001298:	00000000 	nop

8000129c <put_pixel>:
8000129c:	00801025 	move	v0,a0
800012a0:	2404000c 	li	a0,12
800012a4:	00402825 	move	a1,v0
800012a8:	00a03025 	move	a2,a1
800012ac:	00c03825 	move	a3,a2
800012b0:	0000000c 	syscall
800012b4:	03e00008 	jr	ra
800012b8:	00000000 	nop

800012bc <getc>:
800012bc:	27bdffe8 	addiu	sp,sp,-24
800012c0:	afbf0014 	sw	ra,20(sp)
800012c4:	afb00010 	sw	s0,16(sp)
800012c8:	3410ffff 	li	s0,0xffff
800012cc:	0c00046f 	jal	800011bc <get_char>
800012d0:	00000000 	nop
800012d4:	3042ffff 	andi	v0,v0,0xffff
800012d8:	1050fffc 	beq	v0,s0,800012cc <getc+0x10>
800012dc:	00000000 	nop
800012e0:	8fbf0014 	lw	ra,20(sp)
800012e4:	8fb00010 	lw	s0,16(sp)
800012e8:	03e00008 	jr	ra
800012ec:	27bd0018 	addiu	sp,sp,24

800012f0 <gets>:
800012f0:	10a0002d 	beqz	a1,800013a8 <gets+0xb8>
800012f4:	00000000 	nop
800012f8:	27bdffd0 	addiu	sp,sp,-48
800012fc:	afbf002c 	sw	ra,44(sp)
80001300:	afb50028 	sw	s5,40(sp)
80001304:	afb40024 	sw	s4,36(sp)
80001308:	afb30020 	sw	s3,32(sp)
8000130c:	afb2001c 	sw	s2,28(sp)
80001310:	afb10018 	sw	s1,24(sp)
80001314:	afb00014 	sw	s0,20(sp)
80001318:	00a09025 	move	s2,a1
8000131c:	00809825 	move	s3,a0
80001320:	00008825 	move	s1,zero
80001324:	24140008 	li	s4,8
80001328:	1000000a 	b	80001354 <gets+0x64>
8000132c:	2415000a 	li	s5,10
80001330:	0c00048b 	jal	8000122c <put_char>
80001334:	00402025 	move	a0,v0
80001338:	96020000 	lhu	v0,0(s0)
8000133c:	00000000 	nop
80001340:	1055000f 	beq	v0,s5,80001380 <gets+0x90>
80001344:	26310001 	addiu	s1,s1,1
80001348:	0232102b 	sltu	v0,s1,s2
8000134c:	1040000d 	beqz	v0,80001384 <gets+0x94>
80001350:	00000000 	nop
80001354:	00118040 	sll	s0,s1,0x1
80001358:	0c0004af 	jal	800012bc <getc>
8000135c:	02708021 	addu	s0,s3,s0
80001360:	1454fff3 	bne	v0,s4,80001330 <gets+0x40>
80001364:	a6020000 	sh	v0,0(s0)
80001368:	1220fff8 	beqz	s1,8000134c <gets+0x5c>
8000136c:	0232102b 	sltu	v0,s1,s2
80001370:	0c00048b 	jal	8000122c <put_char>
80001374:	02802025 	move	a0,s4
80001378:	1000fff3 	b	80001348 <gets+0x58>
8000137c:	2631ffff 	addiu	s1,s1,-1
80001380:	a6000000 	sh	zero,0(s0)
80001384:	8fbf002c 	lw	ra,44(sp)
80001388:	8fb50028 	lw	s5,40(sp)
8000138c:	8fb40024 	lw	s4,36(sp)
80001390:	8fb30020 	lw	s3,32(sp)
80001394:	8fb2001c 	lw	s2,28(sp)
80001398:	8fb10018 	lw	s1,24(sp)
8000139c:	8fb00014 	lw	s0,20(sp)
800013a0:	03e00008 	jr	ra
800013a4:	27bd0030 	addiu	sp,sp,48
800013a8:	03e00008 	jr	ra
800013ac:	00000000 	nop

800013b0 <strcmp_short>:
800013b0:	10c00014 	beqz	a2,80001404 <strcmp_short+0x54>
800013b4:	00000000 	nop
800013b8:	94830000 	lhu	v1,0(a0)
800013bc:	94a20000 	lhu	v0,0(a1)
800013c0:	00000000 	nop
800013c4:	14620011 	bne	v1,v0,8000140c <strcmp_short+0x5c>
800013c8:	24840002 	addiu	a0,a0,2
800013cc:	24a50002 	addiu	a1,a1,2
800013d0:	00001825 	move	v1,zero
800013d4:	24630001 	addiu	v1,v1,1
800013d8:	10c30008 	beq	a2,v1,800013fc <strcmp_short+0x4c>
800013dc:	00000000 	nop
800013e0:	94880000 	lhu	t0,0(a0)
800013e4:	94a70000 	lhu	a3,0(a1)
800013e8:	24840002 	addiu	a0,a0,2
800013ec:	1107fff9 	beq	t0,a3,800013d4 <strcmp_short+0x24>
800013f0:	24a50002 	addiu	a1,a1,2
800013f4:	03e00008 	jr	ra
800013f8:	24020001 	li	v0,1
800013fc:	03e00008 	jr	ra
80001400:	00001025 	move	v0,zero
80001404:	03e00008 	jr	ra
80001408:	00c01025 	move	v0,a2
8000140c:	03e00008 	jr	ra
80001410:	24020001 	li	v0,1

80001414 <strcmp_char>:
80001414:	10c00013 	beqz	a2,80001464 <strcmp_char+0x50>
80001418:	00000000 	nop
8000141c:	90830000 	lbu	v1,0(a0)
80001420:	90a20000 	lbu	v0,0(a1)
80001424:	00000000 	nop
80001428:	14620010 	bne	v1,v0,8000146c <strcmp_char+0x58>
8000142c:	24830001 	addiu	v1,a0,1
80001430:	24a50001 	addiu	a1,a1,1
80001434:	00863021 	addu	a2,a0,a2
80001438:	10660008 	beq	v1,a2,8000145c <strcmp_char+0x48>
8000143c:	00000000 	nop
80001440:	90680000 	lbu	t0,0(v1)
80001444:	90a70000 	lbu	a3,0(a1)
80001448:	24630001 	addiu	v1,v1,1
8000144c:	1107fffa 	beq	t0,a3,80001438 <strcmp_char+0x24>
80001450:	24a50001 	addiu	a1,a1,1
80001454:	03e00008 	jr	ra
80001458:	24020001 	li	v0,1
8000145c:	03e00008 	jr	ra
80001460:	00001025 	move	v0,zero
80001464:	03e00008 	jr	ra
80001468:	00c01025 	move	v0,a2
8000146c:	03e00008 	jr	ra
80001470:	24020001 	li	v0,1

80001474 <strlen_short>:
80001474:	94820000 	lhu	v0,0(a0)
80001478:	00000000 	nop
8000147c:	10400009 	beqz	v0,800014a4 <strlen_short+0x30>
80001480:	24840002 	addiu	a0,a0,2
80001484:	00001025 	move	v0,zero
80001488:	24840002 	addiu	a0,a0,2
8000148c:	9483fffe 	lhu	v1,-2(a0)
80001490:	00000000 	nop
80001494:	1460fffc 	bnez	v1,80001488 <strlen_short+0x14>
80001498:	24420001 	addiu	v0,v0,1
8000149c:	03e00008 	jr	ra
800014a0:	00000000 	nop
800014a4:	03e00008 	jr	ra
800014a8:	00001025 	move	v0,zero

800014ac <strlen_char>:
800014ac:	90820000 	lbu	v0,0(a0)
800014b0:	00000000 	nop
800014b4:	10400009 	beqz	v0,800014dc <strlen_char+0x30>
800014b8:	24840001 	addiu	a0,a0,1
800014bc:	00001025 	move	v0,zero
800014c0:	24840001 	addiu	a0,a0,1
800014c4:	9083ffff 	lbu	v1,-1(a0)
800014c8:	00000000 	nop
800014cc:	1460fffc 	bnez	v1,800014c0 <strlen_char+0x14>
800014d0:	24420001 	addiu	v0,v0,1
800014d4:	03e00008 	jr	ra
800014d8:	00000000 	nop
800014dc:	03e00008 	jr	ra
800014e0:	00001025 	move	v0,zero

800014e4 <memncpy>:
800014e4:	10c00008 	beqz	a2,80001508 <memncpy+0x24>
800014e8:	00a01025 	move	v0,a1
800014ec:	00a62821 	addu	a1,a1,a2
800014f0:	90430000 	lbu	v1,0(v0)
800014f4:	00000000 	nop
800014f8:	a0830000 	sb	v1,0(a0)
800014fc:	24420001 	addiu	v0,v0,1
80001500:	1445fffb 	bne	v0,a1,800014f0 <memncpy+0xc>
80001504:	24840001 	addiu	a0,a0,1
80001508:	03e00008 	jr	ra
8000150c:	00000000 	nop

80001510 <short2char>:
80001510:	10c00009 	beqz	a2,80001538 <short2char+0x28>
80001514:	00a01025 	move	v0,a1
80001518:	00063040 	sll	a2,a2,0x1
8000151c:	00a62821 	addu	a1,a1,a2
80001520:	94430000 	lhu	v1,0(v0)
80001524:	00000000 	nop
80001528:	a0830000 	sb	v1,0(a0)
8000152c:	24420002 	addiu	v0,v0,2
80001530:	1445fffb 	bne	v0,a1,80001520 <short2char+0x10>
80001534:	24840001 	addiu	a0,a0,1
80001538:	03e00008 	jr	ra
8000153c:	00000000 	nop

80001540 <char2short>:
80001540:	10c00009 	beqz	a2,80001568 <char2short+0x28>
80001544:	00801025 	move	v0,a0
80001548:	00063040 	sll	a2,a2,0x1
8000154c:	00862021 	addu	a0,a0,a2
80001550:	90a30000 	lbu	v1,0(a1)
80001554:	00000000 	nop
80001558:	a4430000 	sh	v1,0(v0)
8000155c:	24420002 	addiu	v0,v0,2
80001560:	1444fffb 	bne	v0,a0,80001550 <char2short+0x10>
80001564:	24a50001 	addiu	a1,a1,1
80001568:	03e00008 	jr	ra
8000156c:	00000000 	nop

80001570 <shell>:
80001570:	27bdfee0 	addiu	sp,sp,-288
80001574:	afbf011c 	sw	ra,284(sp)
80001578:	afb20118 	sw	s2,280(sp)
8000157c:	afb10114 	sw	s1,276(sp)
80001580:	afb00110 	sw	s0,272(sp)
80001584:	3c118000 	lui	s1,0x8000
80001588:	263121a4 	addiu	s1,s1,8612
8000158c:	3c108000 	lui	s0,0x8000
80001590:	26102184 	addiu	s0,s0,8580
80001594:	3c128000 	lui	s2,0x8000
80001598:	10000003 	b	800015a8 <shell+0x38>
8000159c:	26522190 	addiu	s2,s2,8592
800015a0:	0c000491 	jal	80001244 <put_string>
800015a4:	02402025 	move	a0,s2
800015a8:	0c000491 	jal	80001244 <put_string>
800015ac:	02202025 	move	a0,s1
800015b0:	24050080 	li	a1,128
800015b4:	0c0004bc 	jal	800012f0 <gets>
800015b8:	27a40010 	addiu	a0,sp,16
800015bc:	24060006 	li	a2,6
800015c0:	02002825 	move	a1,s0
800015c4:	0c0004ec 	jal	800013b0 <strcmp_short>
800015c8:	27a40010 	addiu	a0,sp,16
800015cc:	1440fff4 	bnez	v0,800015a0 <shell+0x30>
800015d0:	00000000 	nop
800015d4:	0c00046b 	jal	800011ac <clear_screen>
800015d8:	00000000 	nop
800015dc:	1000fff2 	b	800015a8 <shell+0x38>
800015e0:	00000000 	nop

800015e4 <ascii2hex>:
800015e4:	2483ffd0 	addiu	v1,a0,-48
800015e8:	3063ffff 	andi	v1,v1,0xffff
800015ec:	2c63000a 	sltiu	v1,v1,10
800015f0:	1460000d 	bnez	v1,80001628 <ascii2hex+0x44>
800015f4:	00000000 	nop
800015f8:	2482ff9f 	addiu	v0,a0,-97
800015fc:	3042ffff 	andi	v0,v0,0xffff
80001600:	2c420006 	sltiu	v0,v0,6
80001604:	1440000a 	bnez	v0,80001630 <ascii2hex+0x4c>
80001608:	00000000 	nop
8000160c:	2482ffbf 	addiu	v0,a0,-65
80001610:	3042ffff 	andi	v0,v0,0xffff
80001614:	2c420006 	sltiu	v0,v0,6
80001618:	10400007 	beqz	v0,80001638 <ascii2hex+0x54>
8000161c:	00000000 	nop
80001620:	03e00008 	jr	ra
80001624:	2482ffc9 	addiu	v0,a0,-55
80001628:	03e00008 	jr	ra
8000162c:	2482ffd0 	addiu	v0,a0,-48
80001630:	03e00008 	jr	ra
80001634:	2482ffa9 	addiu	v0,a0,-87
80001638:	03e00008 	jr	ra
8000163c:	00001025 	move	v0,zero

80001640 <init_input>:
80001640:	27bdffe8 	addiu	sp,sp,-24
80001644:	afbf0014 	sw	ra,20(sp)
80001648:	3c028000 	lui	v0,0x8000
8000164c:	ac4021b8 	sw	zero,8632(v0)
80001650:	3c038000 	lui	v1,0x8000
80001654:	246221b0 	addiu	v0,v1,8624
80001658:	a4400006 	sh	zero,6(v0)
8000165c:	a4400004 	sh	zero,4(v0)
80001660:	a4400002 	sh	zero,2(v0)
80001664:	a46021b0 	sh	zero,8624(v1)
80001668:	3c028000 	lui	v0,0x8000
8000166c:	ac4021ac 	sw	zero,8620(v0)
80001670:	24050488 	li	a1,1160
80001674:	0c0003e8 	jal	80000fa0 <kput_char>
80001678:	2404008f 	li	a0,143
8000167c:	8fbf0014 	lw	ra,20(sp)
80001680:	00000000 	nop
80001684:	03e00008 	jr	ra
80001688:	27bd0018 	addiu	sp,sp,24

8000168c <input_key>:
8000168c:	27bdffd8 	addiu	sp,sp,-40
80001690:	afbf0024 	sw	ra,36(sp)
80001694:	afb30020 	sw	s3,32(sp)
80001698:	afb2001c 	sw	s2,28(sp)
8000169c:	afb10018 	sw	s1,24(sp)
800016a0:	24020012 	li	v0,18
800016a4:	10a2003f 	beq	a1,v0,800017a4 <input_key+0x118>
800016a8:	afb00014 	sw	s0,20(sp)
800016ac:	10800071 	beqz	a0,80001874 <input_key+0x1e8>
800016b0:	3c028000 	lui	v0,0x8000
800016b4:	90422066 	lbu	v0,8294(v0)
800016b8:	00000000 	nop
800016bc:	30420004 	andi	v0,v0,0x4
800016c0:	14400006 	bnez	v0,800016dc <input_key+0x50>
800016c4:	3c028000 	lui	v0,0x8000
800016c8:	9042206f 	lbu	v0,8303(v0)
800016cc:	00000000 	nop
800016d0:	30420002 	andi	v0,v0,0x2
800016d4:	10400061 	beqz	v0,8000185c <input_key+0x1d0>
800016d8:	3c028000 	lui	v0,0x8000
800016dc:	00052840 	sll	a1,a1,0x1
800016e0:	3c028000 	lui	v0,0x8000
800016e4:	244221bc 	addiu	v0,v0,8636
800016e8:	00a22821 	addu	a1,a1,v0
800016ec:	94b00000 	lhu	s0,0(a1)
800016f0:	3c028000 	lui	v0,0x8000
800016f4:	8c4221b8 	lw	v0,8632(v0)
800016f8:	00000000 	nop
800016fc:	104000dd 	beqz	v0,80001a74 <input_key+0x3e8>
80001700:	2602ffd0 	addiu	v0,s0,-48
80001704:	3042ffff 	andi	v0,v0,0xffff
80001708:	2c42000a 	sltiu	v0,v0,10
8000170c:	14400072 	bnez	v0,800018d8 <input_key+0x24c>
80001710:	2602ff9f 	addiu	v0,s0,-97
80001714:	3042ffff 	andi	v0,v0,0xffff
80001718:	2c420006 	sltiu	v0,v0,6
8000171c:	14400072 	bnez	v0,800018e8 <input_key+0x25c>
80001720:	2602ffbf 	addiu	v0,s0,-65
80001724:	3042ffff 	andi	v0,v0,0xffff
80001728:	2c420006 	sltiu	v0,v0,6
8000172c:	14400071 	bnez	v0,800018f4 <input_key+0x268>
80001730:	3c028000 	lui	v0,0x8000
80001734:	2402000a 	li	v0,10
80001738:	1202009a 	beq	s0,v0,800019a4 <input_key+0x318>
8000173c:	24020008 	li	v0,8
80001740:	160200cc 	bne	s0,v0,80001a74 <input_key+0x3e8>
80001744:	3c028000 	lui	v0,0x8000
80001748:	8c4221ac 	lw	v0,8620(v0)
8000174c:	00000000 	nop
80001750:	104000c8 	beqz	v0,80001a74 <input_key+0x3e8>
80001754:	24030004 	li	v1,4
80001758:	104300c1 	beq	v0,v1,80001a60 <input_key+0x3d4>
8000175c:	2405048d 	li	a1,1165
80001760:	3c108000 	lui	s0,0x8000
80001764:	8e0521ac 	lw	a1,8620(s0)
80001768:	00000000 	nop
8000176c:	24a50488 	addiu	a1,a1,1160
80001770:	0c0003e8 	jal	80000fa0 <kput_char>
80001774:	00002025 	move	a0,zero
80001778:	8e0221ac 	lw	v0,8620(s0)
8000177c:	00000000 	nop
80001780:	2442ffff 	addiu	v0,v0,-1
80001784:	ae0221ac 	sw	v0,8620(s0)
80001788:	00021040 	sll	v0,v0,0x1
8000178c:	3c038000 	lui	v1,0x8000
80001790:	246321b0 	addiu	v1,v1,8624
80001794:	00431021 	addu	v0,v0,v1
80001798:	a4400000 	sh	zero,0(v0)
8000179c:	100000b5 	b	80001a74 <input_key+0x3e8>
800017a0:	3410ffff 	li	s0,0xffff
800017a4:	3c028000 	lui	v0,0x8000
800017a8:	90422066 	lbu	v0,8294(v0)
800017ac:	00000000 	nop
800017b0:	30420010 	andi	v0,v0,0x10
800017b4:	1040ffbd 	beqz	v0,800016ac <input_key+0x20>
800017b8:	3c028000 	lui	v0,0x8000
800017bc:	8c4221b8 	lw	v0,8632(v0)
800017c0:	00000000 	nop
800017c4:	14400008 	bnez	v0,800017e8 <input_key+0x15c>
800017c8:	3c028000 	lui	v0,0x8000
800017cc:	24030001 	li	v1,1
800017d0:	ac4321b8 	sw	v1,8632(v0)
800017d4:	24050488 	li	a1,1160
800017d8:	0c0003e8 	jal	80000fa0 <kput_char>
800017dc:	24040090 	li	a0,144
800017e0:	100000a4 	b	80001a74 <input_key+0x3e8>
800017e4:	3410ffff 	li	s0,0xffff
800017e8:	ac4021b8 	sw	zero,8632(v0)
800017ec:	3c038000 	lui	v1,0x8000
800017f0:	246221b0 	addiu	v0,v1,8624
800017f4:	a4400006 	sh	zero,6(v0)
800017f8:	a4400004 	sh	zero,4(v0)
800017fc:	a4400002 	sh	zero,2(v0)
80001800:	a46021b0 	sh	zero,8624(v1)
80001804:	3c028000 	lui	v0,0x8000
80001808:	ac4021ac 	sw	zero,8620(v0)
8000180c:	24050488 	li	a1,1160
80001810:	0c0003e8 	jal	80000fa0 <kput_char>
80001814:	2404008f 	li	a0,143
80001818:	24050489 	li	a1,1161
8000181c:	0c0003e8 	jal	80000fa0 <kput_char>
80001820:	00002025 	move	a0,zero
80001824:	2405048a 	li	a1,1162
80001828:	0c0003e8 	jal	80000fa0 <kput_char>
8000182c:	00002025 	move	a0,zero
80001830:	2405048b 	li	a1,1163
80001834:	0c0003e8 	jal	80000fa0 <kput_char>
80001838:	00002025 	move	a0,zero
8000183c:	2405048c 	li	a1,1164
80001840:	0c0003e8 	jal	80000fa0 <kput_char>
80001844:	00002025 	move	a0,zero
80001848:	2405048d 	li	a1,1165
8000184c:	0c0003e8 	jal	80000fa0 <kput_char>
80001850:	00002025 	move	a0,zero
80001854:	10000087 	b	80001a74 <input_key+0x3e8>
80001858:	3410ffff 	li	s0,0xffff
8000185c:	00052840 	sll	a1,a1,0x1
80001860:	244222bc 	addiu	v0,v0,8892
80001864:	00a22821 	addu	a1,a1,v0
80001868:	94b00000 	lhu	s0,0(a1)
8000186c:	1000ffa1 	b	800016f4 <input_key+0x68>
80001870:	3c028000 	lui	v0,0x8000
80001874:	90422066 	lbu	v0,8294(v0)
80001878:	00000000 	nop
8000187c:	30420004 	andi	v0,v0,0x4
80001880:	14400007 	bnez	v0,800018a0 <input_key+0x214>
80001884:	00000000 	nop
80001888:	3c028000 	lui	v0,0x8000
8000188c:	9042206f 	lbu	v0,8303(v0)
80001890:	00000000 	nop
80001894:	30420002 	andi	v0,v0,0x2
80001898:	10400008 	beqz	v0,800018bc <input_key+0x230>
8000189c:	00000000 	nop
800018a0:	00052840 	sll	a1,a1,0x1
800018a4:	3c028000 	lui	v0,0x8000
800018a8:	244222bc 	addiu	v0,v0,8892
800018ac:	00a22821 	addu	a1,a1,v0
800018b0:	94b00000 	lhu	s0,0(a1)
800018b4:	1000ff8f 	b	800016f4 <input_key+0x68>
800018b8:	3c028000 	lui	v0,0x8000
800018bc:	00052840 	sll	a1,a1,0x1
800018c0:	3c028000 	lui	v0,0x8000
800018c4:	244221bc 	addiu	v0,v0,8636
800018c8:	00a22821 	addu	a1,a1,v0
800018cc:	94b00000 	lhu	s0,0(a1)
800018d0:	1000ff88 	b	800016f4 <input_key+0x68>
800018d4:	3c028000 	lui	v0,0x8000
800018d8:	3042ffff 	andi	v0,v0,0xffff
800018dc:	2c420006 	sltiu	v0,v0,6
800018e0:	10400004 	beqz	v0,800018f4 <input_key+0x268>
800018e4:	3c028000 	lui	v0,0x8000
800018e8:	2610ffe0 	addiu	s0,s0,-32
800018ec:	3210ffff 	andi	s0,s0,0xffff
800018f0:	3c028000 	lui	v0,0x8000
800018f4:	8c4521ac 	lw	a1,8620(v0)
800018f8:	00000000 	nop
800018fc:	2ca20004 	sltiu	v0,a1,4
80001900:	1040005b 	beqz	v0,80001a70 <input_key+0x3e4>
80001904:	00051040 	sll	v0,a1,0x1
80001908:	3c038000 	lui	v1,0x8000
8000190c:	246321b0 	addiu	v1,v1,8624
80001910:	00431021 	addu	v0,v0,v1
80001914:	a4500000 	sh	s0,0(v0)
80001918:	3c118000 	lui	s1,0x8000
8000191c:	24a20001 	addiu	v0,a1,1
80001920:	ae2221ac 	sw	v0,8620(s1)
80001924:	24a50489 	addiu	a1,a1,1161
80001928:	0c0003e8 	jal	80000fa0 <kput_char>
8000192c:	02002025 	move	a0,s0
80001930:	8e2321ac 	lw	v1,8620(s1)
80001934:	24020004 	li	v0,4
80001938:	10620003 	beq	v1,v0,80001948 <input_key+0x2bc>
8000193c:	3c118000 	lui	s1,0x8000
80001940:	1000004c 	b	80001a74 <input_key+0x3e8>
80001944:	3410ffff 	li	s0,0xffff
80001948:	962421b0 	lhu	a0,8624(s1)
8000194c:	0c000579 	jal	800015e4 <ascii2hex>
80001950:	263121b0 	addiu	s1,s1,8624
80001954:	96240002 	lhu	a0,2(s1)
80001958:	0c000579 	jal	800015e4 <ascii2hex>
8000195c:	00408025 	move	s0,v0
80001960:	00108300 	sll	s0,s0,0xc
80001964:	00021200 	sll	v0,v0,0x8
80001968:	02028025 	or	s0,s0,v0
8000196c:	96240004 	lhu	a0,4(s1)
80001970:	0c000579 	jal	800015e4 <ascii2hex>
80001974:	3210ffff 	andi	s0,s0,0xffff
80001978:	96240006 	lhu	a0,6(s1)
8000197c:	0c000579 	jal	800015e4 <ascii2hex>
80001980:	00409025 	move	s2,v0
80001984:	00129100 	sll	s2,s2,0x4
80001988:	02021025 	or	v0,s0,v0
8000198c:	02421025 	or	v0,s2,v0
80001990:	2405048d 	li	a1,1165
80001994:	0c0003e8 	jal	80000fa0 <kput_char>
80001998:	3044ffff 	andi	a0,v0,0xffff
8000199c:	10000035 	b	80001a74 <input_key+0x3e8>
800019a0:	3410ffff 	li	s0,0xffff
800019a4:	3c028000 	lui	v0,0x8000
800019a8:	8c4321ac 	lw	v1,8620(v0)
800019ac:	24020004 	li	v0,4
800019b0:	14620030 	bne	v1,v0,80001a74 <input_key+0x3e8>
800019b4:	3c138000 	lui	s3,0x8000
800019b8:	966421b0 	lhu	a0,8624(s3)
800019bc:	0c000579 	jal	800015e4 <ascii2hex>
800019c0:	267121b0 	addiu	s1,s3,8624
800019c4:	96240002 	lhu	a0,2(s1)
800019c8:	0c000579 	jal	800015e4 <ascii2hex>
800019cc:	00408025 	move	s0,v0
800019d0:	00108300 	sll	s0,s0,0xc
800019d4:	00021200 	sll	v0,v0,0x8
800019d8:	02028025 	or	s0,s0,v0
800019dc:	96240004 	lhu	a0,4(s1)
800019e0:	0c000579 	jal	800015e4 <ascii2hex>
800019e4:	3210ffff 	andi	s0,s0,0xffff
800019e8:	96240006 	lhu	a0,6(s1)
800019ec:	0c000579 	jal	800015e4 <ascii2hex>
800019f0:	00409025 	move	s2,v0
800019f4:	00129100 	sll	s2,s2,0x4
800019f8:	02028025 	or	s0,s0,v0
800019fc:	02508025 	or	s0,s2,s0
80001a00:	3210ffff 	andi	s0,s0,0xffff
80001a04:	3c028000 	lui	v0,0x8000
80001a08:	ac4021ac 	sw	zero,8620(v0)
80001a0c:	a6200006 	sh	zero,6(s1)
80001a10:	a6200004 	sh	zero,4(s1)
80001a14:	a6200002 	sh	zero,2(s1)
80001a18:	a66021b0 	sh	zero,8624(s3)
80001a1c:	24050489 	li	a1,1161
80001a20:	0c0003e8 	jal	80000fa0 <kput_char>
80001a24:	00002025 	move	a0,zero
80001a28:	2405048a 	li	a1,1162
80001a2c:	0c0003e8 	jal	80000fa0 <kput_char>
80001a30:	00002025 	move	a0,zero
80001a34:	2405048b 	li	a1,1163
80001a38:	0c0003e8 	jal	80000fa0 <kput_char>
80001a3c:	00002025 	move	a0,zero
80001a40:	2405048c 	li	a1,1164
80001a44:	0c0003e8 	jal	80000fa0 <kput_char>
80001a48:	00002025 	move	a0,zero
80001a4c:	2405048d 	li	a1,1165
80001a50:	0c0003e8 	jal	80000fa0 <kput_char>
80001a54:	00002025 	move	a0,zero
80001a58:	10000007 	b	80001a78 <input_key+0x3ec>
80001a5c:	02001025 	move	v0,s0
80001a60:	0c0003e8 	jal	80000fa0 <kput_char>
80001a64:	00002025 	move	a0,zero
80001a68:	1000ff3e 	b	80001764 <input_key+0xd8>
80001a6c:	3c108000 	lui	s0,0x8000
80001a70:	3410ffff 	li	s0,0xffff
80001a74:	02001025 	move	v0,s0
80001a78:	8fbf0024 	lw	ra,36(sp)
80001a7c:	8fb30020 	lw	s3,32(sp)
80001a80:	8fb2001c 	lw	s2,28(sp)
80001a84:	8fb10018 	lw	s1,24(sp)
80001a88:	8fb00014 	lw	s0,20(sp)
80001a8c:	03e00008 	jr	ra
80001a90:	27bd0028 	addiu	sp,sp,40
